Archive member included to satisfy reference by file (symbol)

c:/altera/15.0/nios2eds/bin/gnu/h-x86_64-mingw32/bin/../lib/gcc/nios2-elf/4.9.1/../../../../../H-x86_64-mingw32/nios2-elf/lib\libm.a(lib_a-w_sqrt.o)
                              obj/default/graphic_lib/geometry.o (sqrt)
c:/altera/15.0/nios2eds/bin/gnu/h-x86_64-mingw32/bin/../lib/gcc/nios2-elf/4.9.1/../../../../../H-x86_64-mingw32/nios2-elf/lib\libm.a(lib_a-e_sqrt.o)
                              c:/altera/15.0/nios2eds/bin/gnu/h-x86_64-mingw32/bin/../lib/gcc/nios2-elf/4.9.1/../../../../../H-x86_64-mingw32/nios2-elf/lib\libm.a(lib_a-w_sqrt.o) (__ieee754_sqrt)
c:/altera/15.0/nios2eds/bin/gnu/h-x86_64-mingw32/bin/../lib/gcc/nios2-elf/4.9.1/../../../../../H-x86_64-mingw32/nios2-elf/lib\libm.a(lib_a-s_fpclassify.o)
                              c:/altera/15.0/nios2eds/bin/gnu/h-x86_64-mingw32/bin/../lib/gcc/nios2-elf/4.9.1/../../../../../H-x86_64-mingw32/nios2-elf/lib\libm.a(lib_a-w_sqrt.o) (__fpclassifyd)
c:/altera/15.0/nios2eds/bin/gnu/h-x86_64-mingw32/bin/../lib/gcc/nios2-elf/4.9.1/../../../../../H-x86_64-mingw32/nios2-elf/lib\libm.a(lib_a-s_lib_ver.o)
                              c:/altera/15.0/nios2eds/bin/gnu/h-x86_64-mingw32/bin/../lib/gcc/nios2-elf/4.9.1/../../../../../H-x86_64-mingw32/nios2-elf/lib\libm.a(lib_a-w_sqrt.o) (__fdlib_version)
c:/altera/15.0/nios2eds/bin/gnu/h-x86_64-mingw32/bin/../lib/gcc/nios2-elf/4.9.1/../../../../../H-x86_64-mingw32/nios2-elf/lib\libm.a(lib_a-s_matherr.o)
                              c:/altera/15.0/nios2eds/bin/gnu/h-x86_64-mingw32/bin/../lib/gcc/nios2-elf/4.9.1/../../../../../H-x86_64-mingw32/nios2-elf/lib\libm.a(lib_a-w_sqrt.o) (matherr)
c:/altera/15.0/nios2eds/bin/gnu/h-x86_64-mingw32/bin/../lib/gcc/nios2-elf/4.9.1\libgcc.a(lib2-divmod.o)
                              obj/default/demo/gui.o (__divsi3)
c:/altera/15.0/nios2eds/bin/gnu/h-x86_64-mingw32/bin/../lib/gcc/nios2-elf/4.9.1\libgcc.a(adddf3.o)
                              c:/altera/15.0/nios2eds/bin/gnu/h-x86_64-mingw32/bin/../lib/gcc/nios2-elf/4.9.1/../../../../../H-x86_64-mingw32/nios2-elf/lib\libm.a(lib_a-e_sqrt.o) (__adddf3)
c:/altera/15.0/nios2eds/bin/gnu/h-x86_64-mingw32/bin/../lib/gcc/nios2-elf/4.9.1\libgcc.a(divdf3.o)
                              c:/altera/15.0/nios2eds/bin/gnu/h-x86_64-mingw32/bin/../lib/gcc/nios2-elf/4.9.1/../../../../../H-x86_64-mingw32/nios2-elf/lib\libm.a(lib_a-w_sqrt.o) (__divdf3)
c:/altera/15.0/nios2eds/bin/gnu/h-x86_64-mingw32/bin/../lib/gcc/nios2-elf/4.9.1\libgcc.a(ledf2.o)
                              c:/altera/15.0/nios2eds/bin/gnu/h-x86_64-mingw32/bin/../lib/gcc/nios2-elf/4.9.1/../../../../../H-x86_64-mingw32/nios2-elf/lib\libm.a(lib_a-w_sqrt.o) (__ltdf2)
c:/altera/15.0/nios2eds/bin/gnu/h-x86_64-mingw32/bin/../lib/gcc/nios2-elf/4.9.1\libgcc.a(muldf3.o)
                              c:/altera/15.0/nios2eds/bin/gnu/h-x86_64-mingw32/bin/../lib/gcc/nios2-elf/4.9.1/../../../../../H-x86_64-mingw32/nios2-elf/lib\libm.a(lib_a-e_sqrt.o) (__muldf3)
c:/altera/15.0/nios2eds/bin/gnu/h-x86_64-mingw32/bin/../lib/gcc/nios2-elf/4.9.1\libgcc.a(subdf3.o)
                              c:/altera/15.0/nios2eds/bin/gnu/h-x86_64-mingw32/bin/../lib/gcc/nios2-elf/4.9.1/../../../../../H-x86_64-mingw32/nios2-elf/lib\libm.a(lib_a-e_sqrt.o) (__subdf3)
c:/altera/15.0/nios2eds/bin/gnu/h-x86_64-mingw32/bin/../lib/gcc/nios2-elf/4.9.1\libgcc.a(fixdfsi.o)
                              obj/default/graphic_lib/geometry.o (__fixdfsi)
c:/altera/15.0/nios2eds/bin/gnu/h-x86_64-mingw32/bin/../lib/gcc/nios2-elf/4.9.1\libgcc.a(floatsidf.o)
                              obj/default/graphic_lib/geometry.o (__floatsidf)
c:/altera/15.0/nios2eds/bin/gnu/h-x86_64-mingw32/bin/../lib/gcc/nios2-elf/4.9.1\libgcc.a(_clzsi2.o)
                              c:/altera/15.0/nios2eds/bin/gnu/h-x86_64-mingw32/bin/../lib/gcc/nios2-elf/4.9.1\libgcc.a(adddf3.o) (__clzsi2)
c:/altera/15.0/nios2eds/bin/gnu/h-x86_64-mingw32/bin/../lib/gcc/nios2-elf/4.9.1\libgcc.a(_clz.o)
                              c:/altera/15.0/nios2eds/bin/gnu/h-x86_64-mingw32/bin/../lib/gcc/nios2-elf/4.9.1\libgcc.a(_clzsi2.o) (__clz_tab)
c:/altera/15.0/nios2eds/bin/gnu/h-x86_64-mingw32/bin/../lib/gcc/nios2-elf/4.9.1/../../../../../H-x86_64-mingw32/nios2-elf/lib\libc.a(lib_a-errno.o)
                              c:/altera/15.0/nios2eds/bin/gnu/h-x86_64-mingw32/bin/../lib/gcc/nios2-elf/4.9.1/../../../../../H-x86_64-mingw32/nios2-elf/lib\libm.a(lib_a-w_sqrt.o) (__errno)
c:/altera/15.0/nios2eds/bin/gnu/h-x86_64-mingw32/bin/../lib/gcc/nios2-elf/4.9.1/../../../../../H-x86_64-mingw32/nios2-elf/lib\libc.a(lib_a-impure.o)
                              c:/altera/15.0/nios2eds/bin/gnu/h-x86_64-mingw32/bin/../lib/gcc/nios2-elf/4.9.1/../../../../../H-x86_64-mingw32/nios2-elf/lib\libc.a(lib_a-errno.o) (_impure_ptr)
c:/altera/15.0/nios2eds/bin/gnu/h-x86_64-mingw32/bin/../lib/gcc/nios2-elf/4.9.1/../../../../../H-x86_64-mingw32/nios2-elf/lib\libc.a(lib_a-malloc.o)
                              obj/default/graphic_lib/simple_graphics.o (malloc)
c:/altera/15.0/nios2eds/bin/gnu/h-x86_64-mingw32/bin/../lib/gcc/nios2-elf/4.9.1/../../../../../H-x86_64-mingw32/nios2-elf/lib\libc.a(lib_a-mallocr.o)
                              c:/altera/15.0/nios2eds/bin/gnu/h-x86_64-mingw32/bin/../lib/gcc/nios2-elf/4.9.1/../../../../../H-x86_64-mingw32/nios2-elf/lib\libc.a(lib_a-malloc.o) (_malloc_r)
c:/altera/15.0/nios2eds/bin/gnu/h-x86_64-mingw32/bin/../lib/gcc/nios2-elf/4.9.1/../../../../../H-x86_64-mingw32/nios2-elf/lib\libc.a(lib_a-memcpy.o)
                              obj/default/graphic_lib/simple_graphics.o (memcpy)
c:/altera/15.0/nios2eds/bin/gnu/h-x86_64-mingw32/bin/../lib/gcc/nios2-elf/4.9.1/../../../../../H-x86_64-mingw32/nios2-elf/lib\libc.a(lib_a-memset.o)
                              obj/default/terasic_lib/touch_spi.o (memset)
c:/altera/15.0/nios2eds/bin/gnu/h-x86_64-mingw32/bin/../lib/gcc/nios2-elf/4.9.1/../../../../../H-x86_64-mingw32/nios2-elf/lib\libc.a(lib_a-printf.o)
                              obj/default/main.o (printf)
c:/altera/15.0/nios2eds/bin/gnu/h-x86_64-mingw32/bin/../lib/gcc/nios2-elf/4.9.1/../../../../../H-x86_64-mingw32/nios2-elf/lib\libc.a(lib_a-puts.o)
                              obj/default/graphic_lib/simple_graphics.o (puts)
c:/altera/15.0/nios2eds/bin/gnu/h-x86_64-mingw32/bin/../lib/gcc/nios2-elf/4.9.1/../../../../../H-x86_64-mingw32/nios2-elf/lib\libc.a(lib_a-sbrkr.o)
                              c:/altera/15.0/nios2eds/bin/gnu/h-x86_64-mingw32/bin/../lib/gcc/nios2-elf/4.9.1/../../../../../H-x86_64-mingw32/nios2-elf/lib\libc.a(lib_a-mallocr.o) (_sbrk_r)
c:/altera/15.0/nios2eds/bin/gnu/h-x86_64-mingw32/bin/../lib/gcc/nios2-elf/4.9.1/../../../../../H-x86_64-mingw32/nios2-elf/lib\libc.a(lib_a-strcpy.o)
                              obj/default/graphic_lib/simple_graphics.o (strcpy)
c:/altera/15.0/nios2eds/bin/gnu/h-x86_64-mingw32/bin/../lib/gcc/nios2-elf/4.9.1/../../../../../H-x86_64-mingw32/nios2-elf/lib\libc.a(lib_a-strlen.o)
                              obj/default/graphic_lib/simple_graphics.o (strlen)
c:/altera/15.0/nios2eds/bin/gnu/h-x86_64-mingw32/bin/../lib/gcc/nios2-elf/4.9.1/../../../../../H-x86_64-mingw32/nios2-elf/lib\libc.a(lib_a-vfprintf.o)
                              c:/altera/15.0/nios2eds/bin/gnu/h-x86_64-mingw32/bin/../lib/gcc/nios2-elf/4.9.1/../../../../../H-x86_64-mingw32/nios2-elf/lib\libc.a(lib_a-printf.o) (___vfprintf_internal_r)
c:/altera/15.0/nios2eds/bin/gnu/h-x86_64-mingw32/bin/../lib/gcc/nios2-elf/4.9.1/../../../../../H-x86_64-mingw32/nios2-elf/lib\libc.a(lib_a-wsetup.o)
                              c:/altera/15.0/nios2eds/bin/gnu/h-x86_64-mingw32/bin/../lib/gcc/nios2-elf/4.9.1/../../../../../H-x86_64-mingw32/nios2-elf/lib\libc.a(lib_a-vfprintf.o) (__swsetup_r)
c:/altera/15.0/nios2eds/bin/gnu/h-x86_64-mingw32/bin/../lib/gcc/nios2-elf/4.9.1/../../../../../H-x86_64-mingw32/nios2-elf/lib\libc.a(lib_a-dtoa.o)
                              c:/altera/15.0/nios2eds/bin/gnu/h-x86_64-mingw32/bin/../lib/gcc/nios2-elf/4.9.1/../../../../../H-x86_64-mingw32/nios2-elf/lib\libc.a(lib_a-vfprintf.o) (_dtoa_r)
c:/altera/15.0/nios2eds/bin/gnu/h-x86_64-mingw32/bin/../lib/gcc/nios2-elf/4.9.1/../../../../../H-x86_64-mingw32/nios2-elf/lib\libc.a(lib_a-fflush.o)
                              c:/altera/15.0/nios2eds/bin/gnu/h-x86_64-mingw32/bin/../lib/gcc/nios2-elf/4.9.1/../../../../../H-x86_64-mingw32/nios2-elf/lib\libc.a(lib_a-vfprintf.o) (_fflush_r)
c:/altera/15.0/nios2eds/bin/gnu/h-x86_64-mingw32/bin/../lib/gcc/nios2-elf/4.9.1/../../../../../H-x86_64-mingw32/nios2-elf/lib\libc.a(lib_a-findfp.o)
                              c:/altera/15.0/nios2eds/bin/gnu/h-x86_64-mingw32/bin/../lib/gcc/nios2-elf/4.9.1/../../../../../H-x86_64-mingw32/nios2-elf/lib\libc.a(lib_a-vfprintf.o) (__sinit)
c:/altera/15.0/nios2eds/bin/gnu/h-x86_64-mingw32/bin/../lib/gcc/nios2-elf/4.9.1/../../../../../H-x86_64-mingw32/nios2-elf/lib\libc.a(lib_a-freer.o)
                              c:/altera/15.0/nios2eds/bin/gnu/h-x86_64-mingw32/bin/../lib/gcc/nios2-elf/4.9.1/../../../../../H-x86_64-mingw32/nios2-elf/lib\libc.a(lib_a-malloc.o) (_free_r)
c:/altera/15.0/nios2eds/bin/gnu/h-x86_64-mingw32/bin/../lib/gcc/nios2-elf/4.9.1/../../../../../H-x86_64-mingw32/nios2-elf/lib\libc.a(lib_a-fvwrite.o)
                              c:/altera/15.0/nios2eds/bin/gnu/h-x86_64-mingw32/bin/../lib/gcc/nios2-elf/4.9.1/../../../../../H-x86_64-mingw32/nios2-elf/lib\libc.a(lib_a-puts.o) (__sfvwrite_r)
c:/altera/15.0/nios2eds/bin/gnu/h-x86_64-mingw32/bin/../lib/gcc/nios2-elf/4.9.1/../../../../../H-x86_64-mingw32/nios2-elf/lib\libc.a(lib_a-fwalk.o)
                              c:/altera/15.0/nios2eds/bin/gnu/h-x86_64-mingw32/bin/../lib/gcc/nios2-elf/4.9.1/../../../../../H-x86_64-mingw32/nios2-elf/lib\libc.a(lib_a-findfp.o) (_fwalk)
c:/altera/15.0/nios2eds/bin/gnu/h-x86_64-mingw32/bin/../lib/gcc/nios2-elf/4.9.1/../../../../../H-x86_64-mingw32/nios2-elf/lib\libc.a(lib_a-int_errno.o)
                              c:/altera/15.0/nios2eds/bin/gnu/h-x86_64-mingw32/bin/../lib/gcc/nios2-elf/4.9.1/../../../../../H-x86_64-mingw32/nios2-elf/lib\libc.a(lib_a-sbrkr.o) (errno)
c:/altera/15.0/nios2eds/bin/gnu/h-x86_64-mingw32/bin/../lib/gcc/nios2-elf/4.9.1/../../../../../H-x86_64-mingw32/nios2-elf/lib\libc.a(lib_a-locale.o)
                              c:/altera/15.0/nios2eds/bin/gnu/h-x86_64-mingw32/bin/../lib/gcc/nios2-elf/4.9.1/../../../../../H-x86_64-mingw32/nios2-elf/lib\libc.a(lib_a-vfprintf.o) (_localeconv_r)
c:/altera/15.0/nios2eds/bin/gnu/h-x86_64-mingw32/bin/../lib/gcc/nios2-elf/4.9.1/../../../../../H-x86_64-mingw32/nios2-elf/lib\libc.a(lib_a-makebuf.o)
                              c:/altera/15.0/nios2eds/bin/gnu/h-x86_64-mingw32/bin/../lib/gcc/nios2-elf/4.9.1/../../../../../H-x86_64-mingw32/nios2-elf/lib\libc.a(lib_a-wsetup.o) (__smakebuf_r)
c:/altera/15.0/nios2eds/bin/gnu/h-x86_64-mingw32/bin/../lib/gcc/nios2-elf/4.9.1/../../../../../H-x86_64-mingw32/nios2-elf/lib\libc.a(lib_a-memchr.o)
                              c:/altera/15.0/nios2eds/bin/gnu/h-x86_64-mingw32/bin/../lib/gcc/nios2-elf/4.9.1/../../../../../H-x86_64-mingw32/nios2-elf/lib\libc.a(lib_a-vfprintf.o) (memchr)
c:/altera/15.0/nios2eds/bin/gnu/h-x86_64-mingw32/bin/../lib/gcc/nios2-elf/4.9.1/../../../../../H-x86_64-mingw32/nios2-elf/lib\libc.a(lib_a-memmove.o)
                              c:/altera/15.0/nios2eds/bin/gnu/h-x86_64-mingw32/bin/../lib/gcc/nios2-elf/4.9.1/../../../../../H-x86_64-mingw32/nios2-elf/lib\libc.a(lib_a-fvwrite.o) (memmove)
c:/altera/15.0/nios2eds/bin/gnu/h-x86_64-mingw32/bin/../lib/gcc/nios2-elf/4.9.1/../../../../../H-x86_64-mingw32/nios2-elf/lib\libc.a(lib_a-mprec.o)
                              c:/altera/15.0/nios2eds/bin/gnu/h-x86_64-mingw32/bin/../lib/gcc/nios2-elf/4.9.1/../../../../../H-x86_64-mingw32/nios2-elf/lib\libc.a(lib_a-dtoa.o) (_Balloc)
c:/altera/15.0/nios2eds/bin/gnu/h-x86_64-mingw32/bin/../lib/gcc/nios2-elf/4.9.1/../../../../../H-x86_64-mingw32/nios2-elf/lib\libc.a(lib_a-reallocr.o)
                              c:/altera/15.0/nios2eds/bin/gnu/h-x86_64-mingw32/bin/../lib/gcc/nios2-elf/4.9.1/../../../../../H-x86_64-mingw32/nios2-elf/lib\libc.a(lib_a-fvwrite.o) (_realloc_r)
c:/altera/15.0/nios2eds/bin/gnu/h-x86_64-mingw32/bin/../lib/gcc/nios2-elf/4.9.1/../../../../../H-x86_64-mingw32/nios2-elf/lib\libc.a(lib_a-stdio.o)
                              c:/altera/15.0/nios2eds/bin/gnu/h-x86_64-mingw32/bin/../lib/gcc/nios2-elf/4.9.1/../../../../../H-x86_64-mingw32/nios2-elf/lib\libc.a(lib_a-findfp.o) (__sread)
c:/altera/15.0/nios2eds/bin/gnu/h-x86_64-mingw32/bin/../lib/gcc/nios2-elf/4.9.1/../../../../../H-x86_64-mingw32/nios2-elf/lib\libc.a(lib_a-strcmp.o)
                              c:/altera/15.0/nios2eds/bin/gnu/h-x86_64-mingw32/bin/../lib/gcc/nios2-elf/4.9.1/../../../../../H-x86_64-mingw32/nios2-elf/lib\libc.a(lib_a-locale.o) (strcmp)
c:/altera/15.0/nios2eds/bin/gnu/h-x86_64-mingw32/bin/../lib/gcc/nios2-elf/4.9.1/../../../../../H-x86_64-mingw32/nios2-elf/lib\libc.a(lib_a-vfiprintf.o)
                              c:/altera/15.0/nios2eds/bin/gnu/h-x86_64-mingw32/bin/../lib/gcc/nios2-elf/4.9.1/../../../../../H-x86_64-mingw32/nios2-elf/lib\libc.a(lib_a-vfprintf.o) (__sprint_r)
c:/altera/15.0/nios2eds/bin/gnu/h-x86_64-mingw32/bin/../lib/gcc/nios2-elf/4.9.1/../../../../../H-x86_64-mingw32/nios2-elf/lib\libc.a(lib_a-writer.o)
                              c:/altera/15.0/nios2eds/bin/gnu/h-x86_64-mingw32/bin/../lib/gcc/nios2-elf/4.9.1/../../../../../H-x86_64-mingw32/nios2-elf/lib\libc.a(lib_a-stdio.o) (_write_r)
c:/altera/15.0/nios2eds/bin/gnu/h-x86_64-mingw32/bin/../lib/gcc/nios2-elf/4.9.1/../../../../../H-x86_64-mingw32/nios2-elf/lib\libc.a(closer.o)
                              c:/altera/15.0/nios2eds/bin/gnu/h-x86_64-mingw32/bin/../lib/gcc/nios2-elf/4.9.1/../../../../../H-x86_64-mingw32/nios2-elf/lib\libc.a(lib_a-stdio.o) (_close_r)
c:/altera/15.0/nios2eds/bin/gnu/h-x86_64-mingw32/bin/../lib/gcc/nios2-elf/4.9.1/../../../../../H-x86_64-mingw32/nios2-elf/lib\libc.a(lib_a-callocr.o)
                              c:/altera/15.0/nios2eds/bin/gnu/h-x86_64-mingw32/bin/../lib/gcc/nios2-elf/4.9.1/../../../../../H-x86_64-mingw32/nios2-elf/lib\libc.a(lib_a-mprec.o) (_calloc_r)
c:/altera/15.0/nios2eds/bin/gnu/h-x86_64-mingw32/bin/../lib/gcc/nios2-elf/4.9.1/../../../../../H-x86_64-mingw32/nios2-elf/lib\libc.a(lib_a-fclose.o)
                              c:/altera/15.0/nios2eds/bin/gnu/h-x86_64-mingw32/bin/../lib/gcc/nios2-elf/4.9.1/../../../../../H-x86_64-mingw32/nios2-elf/lib\libc.a(lib_a-findfp.o) (fclose)
c:/altera/15.0/nios2eds/bin/gnu/h-x86_64-mingw32/bin/../lib/gcc/nios2-elf/4.9.1/../../../../../H-x86_64-mingw32/nios2-elf/lib\libc.a(lib_a-fputwc.o)
                              c:/altera/15.0/nios2eds/bin/gnu/h-x86_64-mingw32/bin/../lib/gcc/nios2-elf/4.9.1/../../../../../H-x86_64-mingw32/nios2-elf/lib\libc.a(lib_a-vfiprintf.o) (_fputwc_r)
c:/altera/15.0/nios2eds/bin/gnu/h-x86_64-mingw32/bin/../lib/gcc/nios2-elf/4.9.1/../../../../../H-x86_64-mingw32/nios2-elf/lib\libc.a(lib_a-fstatr.o)
                              c:/altera/15.0/nios2eds/bin/gnu/h-x86_64-mingw32/bin/../lib/gcc/nios2-elf/4.9.1/../../../../../H-x86_64-mingw32/nios2-elf/lib\libc.a(lib_a-makebuf.o) (_fstat_r)
c:/altera/15.0/nios2eds/bin/gnu/h-x86_64-mingw32/bin/../lib/gcc/nios2-elf/4.9.1/../../../../../H-x86_64-mingw32/nios2-elf/lib\libc.a(lib_a-isattyr.o)
                              c:/altera/15.0/nios2eds/bin/gnu/h-x86_64-mingw32/bin/../lib/gcc/nios2-elf/4.9.1/../../../../../H-x86_64-mingw32/nios2-elf/lib\libc.a(lib_a-makebuf.o) (_isatty_r)
c:/altera/15.0/nios2eds/bin/gnu/h-x86_64-mingw32/bin/../lib/gcc/nios2-elf/4.9.1/../../../../../H-x86_64-mingw32/nios2-elf/lib\libc.a(lib_a-lseekr.o)
                              c:/altera/15.0/nios2eds/bin/gnu/h-x86_64-mingw32/bin/../lib/gcc/nios2-elf/4.9.1/../../../../../H-x86_64-mingw32/nios2-elf/lib\libc.a(lib_a-stdio.o) (_lseek_r)
c:/altera/15.0/nios2eds/bin/gnu/h-x86_64-mingw32/bin/../lib/gcc/nios2-elf/4.9.1/../../../../../H-x86_64-mingw32/nios2-elf/lib\libc.a(lib_a-readr.o)
                              c:/altera/15.0/nios2eds/bin/gnu/h-x86_64-mingw32/bin/../lib/gcc/nios2-elf/4.9.1/../../../../../H-x86_64-mingw32/nios2-elf/lib\libc.a(lib_a-stdio.o) (_read_r)
c:/altera/15.0/nios2eds/bin/gnu/h-x86_64-mingw32/bin/../lib/gcc/nios2-elf/4.9.1/../../../../../H-x86_64-mingw32/nios2-elf/lib\libc.a(lib_a-wbuf.o)
                              c:/altera/15.0/nios2eds/bin/gnu/h-x86_64-mingw32/bin/../lib/gcc/nios2-elf/4.9.1/../../../../../H-x86_64-mingw32/nios2-elf/lib\libc.a(lib_a-fputwc.o) (__swbuf_r)
c:/altera/15.0/nios2eds/bin/gnu/h-x86_64-mingw32/bin/../lib/gcc/nios2-elf/4.9.1/../../../../../H-x86_64-mingw32/nios2-elf/lib\libc.a(lib_a-wcrtomb.o)
                              c:/altera/15.0/nios2eds/bin/gnu/h-x86_64-mingw32/bin/../lib/gcc/nios2-elf/4.9.1/../../../../../H-x86_64-mingw32/nios2-elf/lib\libc.a(lib_a-fputwc.o) (_wcrtomb_r)
c:/altera/15.0/nios2eds/bin/gnu/h-x86_64-mingw32/bin/../lib/gcc/nios2-elf/4.9.1/../../../../../H-x86_64-mingw32/nios2-elf/lib\libc.a(lib_a-wctomb_r.o)
                              c:/altera/15.0/nios2eds/bin/gnu/h-x86_64-mingw32/bin/../lib/gcc/nios2-elf/4.9.1/../../../../../H-x86_64-mingw32/nios2-elf/lib\libc.a(lib_a-wcrtomb.o) (__wctomb)
c:/altera/15.0/nios2eds/bin/gnu/h-x86_64-mingw32/bin/../lib/gcc/nios2-elf/4.9.1\libgcc.a(_udivdi3.o)
                              c:/altera/15.0/nios2eds/bin/gnu/h-x86_64-mingw32/bin/../lib/gcc/nios2-elf/4.9.1/../../../../../H-x86_64-mingw32/nios2-elf/lib\libc.a(lib_a-vfprintf.o) (__udivdi3)
c:/altera/15.0/nios2eds/bin/gnu/h-x86_64-mingw32/bin/../lib/gcc/nios2-elf/4.9.1\libgcc.a(_umoddi3.o)
                              c:/altera/15.0/nios2eds/bin/gnu/h-x86_64-mingw32/bin/../lib/gcc/nios2-elf/4.9.1/../../../../../H-x86_64-mingw32/nios2-elf/lib\libc.a(lib_a-vfprintf.o) (__umoddi3)
c:/altera/15.0/nios2eds/bin/gnu/h-x86_64-mingw32/bin/../lib/gcc/nios2-elf/4.9.1\libgcc.a(eqdf2.o)
                              c:/altera/15.0/nios2eds/bin/gnu/h-x86_64-mingw32/bin/../lib/gcc/nios2-elf/4.9.1/../../../../../H-x86_64-mingw32/nios2-elf/lib\libc.a(lib_a-vfprintf.o) (__eqdf2)
c:/altera/15.0/nios2eds/bin/gnu/h-x86_64-mingw32/bin/../lib/gcc/nios2-elf/4.9.1\libgcc.a(gedf2.o)
                              c:/altera/15.0/nios2eds/bin/gnu/h-x86_64-mingw32/bin/../lib/gcc/nios2-elf/4.9.1/../../../../../H-x86_64-mingw32/nios2-elf/lib\libc.a(lib_a-dtoa.o) (__gedf2)
c:/altera/15.0/nios2eds/bin/gnu/h-x86_64-mingw32/bin/../lib/gcc/nios2-elf/4.9.1\libgcc.a(floatunsidf.o)
                              c:/altera/15.0/nios2eds/bin/gnu/h-x86_64-mingw32/bin/../lib/gcc/nios2-elf/4.9.1/../../../../../H-x86_64-mingw32/nios2-elf/lib\libc.a(lib_a-dtoa.o) (__floatunsidf)
../LT24_final_sw_bsp/\libucosii_bsp.a(alt_alarm_start.o)
                              obj/default/terasic_lib/touch_spi.o (alt_alarm_start)
../LT24_final_sw_bsp/\libucosii_bsp.a(alt_close.o)
                              c:/altera/15.0/nios2eds/bin/gnu/h-x86_64-mingw32/bin/../lib/gcc/nios2-elf/4.9.1/../../../../../H-x86_64-mingw32/nios2-elf/lib\libc.a(closer.o) (close)
../LT24_final_sw_bsp/\libucosii_bsp.a(alt_dev.o)
                              ../LT24_final_sw_bsp/\libucosii_bsp.a(alt_close.o) (alt_fd_list)
../LT24_final_sw_bsp/\libucosii_bsp.a(alt_errno.o)
                              ../LT24_final_sw_bsp/\libucosii_bsp.a(alt_close.o) (alt_errno)
../LT24_final_sw_bsp/\libucosii_bsp.a(alt_fstat.o)
                              c:/altera/15.0/nios2eds/bin/gnu/h-x86_64-mingw32/bin/../lib/gcc/nios2-elf/4.9.1/../../../../../H-x86_64-mingw32/nios2-elf/lib\libc.a(lib_a-fstatr.o) (fstat)
../LT24_final_sw_bsp/\libucosii_bsp.a(alt_iic.o)
                              obj/default/terasic_lib/touch_spi.o (alt_ic_isr_register)
../LT24_final_sw_bsp/\libucosii_bsp.a(alt_iic_isr_register.o)
                              ../LT24_final_sw_bsp/\libucosii_bsp.a(alt_iic.o) (alt_iic_isr_register)
../LT24_final_sw_bsp/\libucosii_bsp.a(alt_irq_entry.o)
                              ../LT24_final_sw_bsp/\libucosii_bsp.a(alt_iic_isr_register.o) (alt_irq_entry)
../LT24_final_sw_bsp/\libucosii_bsp.a(alt_irq_handler.o)
                              ../LT24_final_sw_bsp/\libucosii_bsp.a(alt_iic_isr_register.o) (alt_irq)
../LT24_final_sw_bsp/\libucosii_bsp.a(alt_irq_vars.o)
                              ../LT24_final_sw_bsp/\libucosii_bsp.a(alt_iic.o) (alt_irq_active)
../LT24_final_sw_bsp/\libucosii_bsp.a(alt_isatty.o)
                              c:/altera/15.0/nios2eds/bin/gnu/h-x86_64-mingw32/bin/../lib/gcc/nios2-elf/4.9.1/../../../../../H-x86_64-mingw32/nios2-elf/lib\libc.a(lib_a-isattyr.o) (isatty)
../LT24_final_sw_bsp/\libucosii_bsp.a(alt_load.o)
                              ../LT24_final_sw_bsp//obj/HAL/src/crt0.o (alt_load)
../LT24_final_sw_bsp/\libucosii_bsp.a(alt_lseek.o)
                              c:/altera/15.0/nios2eds/bin/gnu/h-x86_64-mingw32/bin/../lib/gcc/nios2-elf/4.9.1/../../../../../H-x86_64-mingw32/nios2-elf/lib\libc.a(lib_a-lseekr.o) (lseek)
../LT24_final_sw_bsp/\libucosii_bsp.a(alt_main.o)
                              ../LT24_final_sw_bsp//obj/HAL/src/crt0.o (alt_main)
../LT24_final_sw_bsp/\libucosii_bsp.a(alt_read.o)
                              c:/altera/15.0/nios2eds/bin/gnu/h-x86_64-mingw32/bin/../lib/gcc/nios2-elf/4.9.1/../../../../../H-x86_64-mingw32/nios2-elf/lib\libc.a(lib_a-readr.o) (read)
../LT24_final_sw_bsp/\libucosii_bsp.a(alt_release_fd.o)
                              ../LT24_final_sw_bsp/\libucosii_bsp.a(alt_close.o) (alt_release_fd)
../LT24_final_sw_bsp/\libucosii_bsp.a(alt_sbrk.o)
                              c:/altera/15.0/nios2eds/bin/gnu/h-x86_64-mingw32/bin/../lib/gcc/nios2-elf/4.9.1/../../../../../H-x86_64-mingw32/nios2-elf/lib\libc.a(lib_a-sbrkr.o) (sbrk)
../LT24_final_sw_bsp/\libucosii_bsp.a(alt_tick.o)
                              obj/default/graphic_lib/simple_graphics.o (_alt_tick_rate)
../LT24_final_sw_bsp/\libucosii_bsp.a(alt_usleep.o)
                              obj/default/graphic_lib/ILI9341.o (usleep)
../LT24_final_sw_bsp/\libucosii_bsp.a(alt_write.o)
                              c:/altera/15.0/nios2eds/bin/gnu/h-x86_64-mingw32/bin/../lib/gcc/nios2-elf/4.9.1/../../../../../H-x86_64-mingw32/nios2-elf/lib\libc.a(lib_a-writer.o) (write)
../LT24_final_sw_bsp/\libucosii_bsp.a(alt_env_lock.o)
                              ../LT24_final_sw_bsp/\libucosii_bsp.a(alt_main.o) (alt_envsem)
../LT24_final_sw_bsp/\libucosii_bsp.a(alt_malloc_lock.o)
                              ../LT24_final_sw_bsp/\libucosii_bsp.a(alt_main.o) (alt_heapsem)
../LT24_final_sw_bsp/\libucosii_bsp.a(os_core.o)
                              ../LT24_final_sw_bsp/\libucosii_bsp.a(alt_usleep.o) (OSRunning)
../LT24_final_sw_bsp/\libucosii_bsp.a(os_dbg.o)
                              ../LT24_final_sw_bsp/\libucosii_bsp.a(os_core.o) (OSDebugInit)
../LT24_final_sw_bsp/\libucosii_bsp.a(os_flag.o)
                              ../LT24_final_sw_bsp/\libucosii_bsp.a(os_core.o) (OS_FlagInit)
../LT24_final_sw_bsp/\libucosii_bsp.a(os_mbox.o)
                              obj/default/main.o (OSMboxCreate)
../LT24_final_sw_bsp/\libucosii_bsp.a(os_mem.o)
                              ../LT24_final_sw_bsp/\libucosii_bsp.a(os_core.o) (OS_MemInit)
../LT24_final_sw_bsp/\libucosii_bsp.a(os_mutex.o)
                              obj/default/main.o (OSMutexCreate)
../LT24_final_sw_bsp/\libucosii_bsp.a(os_q.o)
                              ../LT24_final_sw_bsp/\libucosii_bsp.a(os_core.o) (OS_QInit)
../LT24_final_sw_bsp/\libucosii_bsp.a(os_sem.o)
                              ../LT24_final_sw_bsp/\libucosii_bsp.a(alt_main.o) (OSSemCreate)
../LT24_final_sw_bsp/\libucosii_bsp.a(os_task.o)
                              obj/default/main.o (OSTaskCreateExt)
../LT24_final_sw_bsp/\libucosii_bsp.a(os_time.o)
                              ../LT24_final_sw_bsp/\libucosii_bsp.a(alt_usleep.o) (OSTimeDly)
../LT24_final_sw_bsp/\libucosii_bsp.a(alt_sys_init.o)
                              ../LT24_final_sw_bsp/\libucosii_bsp.a(alt_main.o) (alt_irq_init)
../LT24_final_sw_bsp/\libucosii_bsp.a(altera_avalon_jtag_uart_fd.o)
                              ../LT24_final_sw_bsp/\libucosii_bsp.a(alt_sys_init.o) (altera_avalon_jtag_uart_read_fd)
../LT24_final_sw_bsp/\libucosii_bsp.a(altera_avalon_jtag_uart_init.o)
                              ../LT24_final_sw_bsp/\libucosii_bsp.a(alt_sys_init.o) (altera_avalon_jtag_uart_init)
../LT24_final_sw_bsp/\libucosii_bsp.a(altera_avalon_jtag_uart_ioctl.o)
                              ../LT24_final_sw_bsp/\libucosii_bsp.a(altera_avalon_jtag_uart_fd.o) (altera_avalon_jtag_uart_ioctl)
../LT24_final_sw_bsp/\libucosii_bsp.a(altera_avalon_jtag_uart_read.o)
                              ../LT24_final_sw_bsp/\libucosii_bsp.a(altera_avalon_jtag_uart_fd.o) (altera_avalon_jtag_uart_read)
../LT24_final_sw_bsp/\libucosii_bsp.a(altera_avalon_jtag_uart_write.o)
                              ../LT24_final_sw_bsp/\libucosii_bsp.a(altera_avalon_jtag_uart_fd.o) (altera_avalon_jtag_uart_write)
../LT24_final_sw_bsp/\libucosii_bsp.a(altera_avalon_spi.o)
                              obj/default/terasic_lib/touch_spi.o (alt_avalon_spi_command)
../LT24_final_sw_bsp/\libucosii_bsp.a(altera_avalon_timer_sc.o)
                              ../LT24_final_sw_bsp/\libucosii_bsp.a(alt_sys_init.o) (alt_avalon_timer_sc_init)
../LT24_final_sw_bsp/\libucosii_bsp.a(alt_busy_sleep.o)
                              ../LT24_final_sw_bsp/\libucosii_bsp.a(alt_usleep.o) (alt_busy_sleep)
../LT24_final_sw_bsp/\libucosii_bsp.a(alt_dcache_flush_all.o)
                              ../LT24_final_sw_bsp/\libucosii_bsp.a(alt_load.o) (alt_dcache_flush_all)
../LT24_final_sw_bsp/\libucosii_bsp.a(alt_dev_llist_insert.o)
                              ../LT24_final_sw_bsp/\libucosii_bsp.a(alt_sys_init.o) (alt_dev_llist_insert)
../LT24_final_sw_bsp/\libucosii_bsp.a(alt_do_ctors.o)
                              ../LT24_final_sw_bsp/\libucosii_bsp.a(alt_main.o) (_do_ctors)
../LT24_final_sw_bsp/\libucosii_bsp.a(alt_do_dtors.o)
                              ../LT24_final_sw_bsp/\libucosii_bsp.a(alt_main.o) (_do_dtors)
../LT24_final_sw_bsp/\libucosii_bsp.a(alt_exception_entry.o)
                              ../LT24_final_sw_bsp/\libucosii_bsp.a(alt_irq_entry.o) (alt_exception)
../LT24_final_sw_bsp/\libucosii_bsp.a(alt_icache_flush_all.o)
                              ../LT24_final_sw_bsp/\libucosii_bsp.a(alt_load.o) (alt_icache_flush_all)
../LT24_final_sw_bsp/\libucosii_bsp.a(alt_io_redirect.o)
                              ../LT24_final_sw_bsp/\libucosii_bsp.a(alt_main.o) (alt_io_redirect)
../LT24_final_sw_bsp/\libucosii_bsp.a(alt_open.o)
                              ../LT24_final_sw_bsp/\libucosii_bsp.a(alt_io_redirect.o) (open)
../LT24_final_sw_bsp/\libucosii_bsp.a(altera_nios2_qsys_irq.o)
                              ../LT24_final_sw_bsp/\libucosii_bsp.a(alt_sys_init.o) (altera_nios2_qsys_irq_init)
../LT24_final_sw_bsp/\libucosii_bsp.a(os_cpu_a.o)
                              ../LT24_final_sw_bsp/\libucosii_bsp.a(os_core.o) (OSIntCtxSw)
../LT24_final_sw_bsp/\libucosii_bsp.a(os_cpu_c.o)
                              ../LT24_final_sw_bsp/\libucosii_bsp.a(os_task.o) (OSTaskStkInit)
../LT24_final_sw_bsp/\libucosii_bsp.a(alt_find_dev.o)
                              ../LT24_final_sw_bsp/\libucosii_bsp.a(alt_open.o) (alt_find_dev)
../LT24_final_sw_bsp/\libucosii_bsp.a(alt_find_file.o)
                              ../LT24_final_sw_bsp/\libucosii_bsp.a(alt_open.o) (alt_find_file)
../LT24_final_sw_bsp/\libucosii_bsp.a(alt_get_fd.o)
                              ../LT24_final_sw_bsp/\libucosii_bsp.a(alt_open.o) (alt_get_fd)
../LT24_final_sw_bsp/\libucosii_bsp.a(alt_icache_flush.o)
                              ../LT24_final_sw_bsp/\libucosii_bsp.a(alt_icache_flush_all.o) (alt_icache_flush)
c:/altera/15.0/nios2eds/bin/gnu/h-x86_64-mingw32/bin/../lib/gcc/nios2-elf/4.9.1/../../../../../H-x86_64-mingw32/nios2-elf/lib\libc.a(lib_a-atexit.o)
                              ../LT24_final_sw_bsp/\libucosii_bsp.a(alt_main.o) (atexit)
c:/altera/15.0/nios2eds/bin/gnu/h-x86_64-mingw32/bin/../lib/gcc/nios2-elf/4.9.1/../../../../../H-x86_64-mingw32/nios2-elf/lib\libc.a(lib_a-exit.o)
                              ../LT24_final_sw_bsp/\libucosii_bsp.a(alt_main.o) (exit)
c:/altera/15.0/nios2eds/bin/gnu/h-x86_64-mingw32/bin/../lib/gcc/nios2-elf/4.9.1/../../../../../H-x86_64-mingw32/nios2-elf/lib\libc.a(lib_a-memcmp.o)
                              ../LT24_final_sw_bsp/\libucosii_bsp.a(alt_find_dev.o) (memcmp)
c:/altera/15.0/nios2eds/bin/gnu/h-x86_64-mingw32/bin/../lib/gcc/nios2-elf/4.9.1/../../../../../H-x86_64-mingw32/nios2-elf/lib\libc.a(lib_a-__atexit.o)
                              c:/altera/15.0/nios2eds/bin/gnu/h-x86_64-mingw32/bin/../lib/gcc/nios2-elf/4.9.1/../../../../../H-x86_64-mingw32/nios2-elf/lib\libc.a(lib_a-atexit.o) (__register_exitproc)
c:/altera/15.0/nios2eds/bin/gnu/h-x86_64-mingw32/bin/../lib/gcc/nios2-elf/4.9.1/../../../../../H-x86_64-mingw32/nios2-elf/lib\libc.a(lib_a-__call_atexit.o)
                              c:/altera/15.0/nios2eds/bin/gnu/h-x86_64-mingw32/bin/../lib/gcc/nios2-elf/4.9.1/../../../../../H-x86_64-mingw32/nios2-elf/lib\libc.a(lib_a-exit.o) (__call_exitprocs)
../LT24_final_sw_bsp/\libucosii_bsp.a(alt_exit.o)
                              c:/altera/15.0/nios2eds/bin/gnu/h-x86_64-mingw32/bin/../lib/gcc/nios2-elf/4.9.1/../../../../../H-x86_64-mingw32/nios2-elf/lib\libc.a(lib_a-exit.o) (_exit)

Allocating common symbols
Common symbol       size              file

alt_irq             0x100             ../LT24_final_sw_bsp/\libucosii_bsp.a(alt_irq_handler.o)
pTouch              0x4               obj/default/main.o
MU_2                0x1               obj/default/main.o
task1_stk           0x4000            obj/default/main.o
OSLockNesting       0x1               ../LT24_final_sw_bsp/\libucosii_bsp.a(os_core.o)
OSRunning           0x1               ../LT24_final_sw_bsp/\libucosii_bsp.a(os_core.o)
OSIdleCtr           0x4               ../LT24_final_sw_bsp/\libucosii_bsp.a(os_core.o)
OSPrioHighRdy       0x1               ../LT24_final_sw_bsp/\libucosii_bsp.a(os_core.o)
errno               0x4               c:/altera/15.0/nios2eds/bin/gnu/h-x86_64-mingw32/bin/../lib/gcc/nios2-elf/4.9.1/../../../../../H-x86_64-mingw32/nios2-elf/lib\libc.a(lib_a-int_errno.o)
alt_heapsem         0x4               ../LT24_final_sw_bsp/\libucosii_bsp.a(alt_malloc_lock.o)
OSFlagTbl           0x370             ../LT24_final_sw_bsp/\libucosii_bsp.a(os_core.o)
OSPrioCur           0x1               ../LT24_final_sw_bsp/\libucosii_bsp.a(os_core.o)
CommMbox            0x4               obj/default/main.o
OSTCBList           0x4               ../LT24_final_sw_bsp/\libucosii_bsp.a(os_core.o)
alt_fd_list_lock    0x4               ../LT24_final_sw_bsp/\libucosii_bsp.a(alt_dev.o)
OSMemTbl            0xc30             ../LT24_final_sw_bsp/\libucosii_bsp.a(os_core.o)
OSTickStepState     0x1               ../LT24_final_sw_bsp/\libucosii_bsp.a(os_core.o)
OSTaskStatStk       0x800             ../LT24_final_sw_bsp/\libucosii_bsp.a(os_core.o)
OSCtxSwCtr          0x4               ../LT24_final_sw_bsp/\libucosii_bsp.a(os_core.o)
S_Mutex             0x4               obj/default/main.o
OSIdleCtrMax        0x4               ../LT24_final_sw_bsp/\libucosii_bsp.a(os_core.o)
OSTCBFreeList       0x4               ../LT24_final_sw_bsp/\libucosii_bsp.a(os_core.o)
Idle                0x4               obj/default/main.o
OSCPUUsage          0x1               ../LT24_final_sw_bsp/\libucosii_bsp.a(os_core.o)
OSTaskCtr           0x1               ../LT24_final_sw_bsp/\libucosii_bsp.a(os_core.o)
OSMemFreeList       0x4               ../LT24_final_sw_bsp/\libucosii_bsp.a(os_core.o)
OSQTbl              0x1e0             ../LT24_final_sw_bsp/\libucosii_bsp.a(os_core.o)
OSTCBHighRdy        0x4               ../LT24_final_sw_bsp/\libucosii_bsp.a(os_core.o)
OSQFreeList         0x4               ../LT24_final_sw_bsp/\libucosii_bsp.a(os_core.o)
OSRdyGrp            0x1               ../LT24_final_sw_bsp/\libucosii_bsp.a(os_core.o)
task2_stk           0x4000            obj/default/main.o
task3_stk           0x4000            obj/default/main.o
OSRdyTbl            0x3               ../LT24_final_sw_bsp/\libucosii_bsp.a(os_core.o)
MU_1                0x1               obj/default/main.o
OSEventFreeList     0x4               ../LT24_final_sw_bsp/\libucosii_bsp.a(os_core.o)
OSIntNesting        0x1               ../LT24_final_sw_bsp/\libucosii_bsp.a(os_core.o)
OSTCBCur            0x4               ../LT24_final_sw_bsp/\libucosii_bsp.a(os_core.o)
OSTime              0x4               ../LT24_final_sw_bsp/\libucosii_bsp.a(os_core.o)
OSTaskIdleStk       0x800             ../LT24_final_sw_bsp/\libucosii_bsp.a(os_core.o)
OSEventTbl          0xb40             ../LT24_final_sw_bsp/\libucosii_bsp.a(os_core.o)
OSTCBTbl            0x510             ../LT24_final_sw_bsp/\libucosii_bsp.a(os_core.o)
OSFlagFreeList      0x4               ../LT24_final_sw_bsp/\libucosii_bsp.a(os_core.o)
OSStatRdy           0x1               ../LT24_final_sw_bsp/\libucosii_bsp.a(os_core.o)
OSTCBPrioTbl        0x54              ../LT24_final_sw_bsp/\libucosii_bsp.a(os_core.o)
Display             0x14              obj/default/main.o
alt_envsem          0x4               ../LT24_final_sw_bsp/\libucosii_bsp.a(alt_env_lock.o)
OSIdleCtrRun        0x4               ../LT24_final_sw_bsp/\libucosii_bsp.a(os_core.o)
DeskInfo            0x60              obj/default/main.o

Memory Configuration

Name             Origin             Length             Attributes
reset            0x0000000002000000 0x0000000000000020
SDRAM            0x0000000002000020 0x0000000001ffffe0
background_mem   0x0000000004000000 0x0000000000002580
pic_mem          0x0000000004004000 0x0000000000002000
*default*        0x0000000000000000 0xffffffffffffffff

Linker script and memory map

LOAD ../LT24_final_sw_bsp//obj/HAL/src/crt0.o
LOAD obj/default/demo/gui.o
LOAD obj/default/fonts/tahomabold_20.o
LOAD obj/default/fonts/tahomabold_32.o
LOAD obj/default/graphic_lib/ILI9341.o
LOAD obj/default/graphic_lib/geometry.o
LOAD obj/default/graphic_lib/simple_graphics.o
LOAD obj/default/graphic_lib/simple_text.o
LOAD obj/default/main.o
LOAD obj/default/terasic_lib/accelerometer_adxl345_spi.o
LOAD obj/default/terasic_lib/terasic_spi.o
LOAD obj/default/terasic_lib/touch_spi.o
LOAD c:/altera/15.0/nios2eds/bin/gnu/h-x86_64-mingw32/bin/../lib/gcc/nios2-elf/4.9.1/../../../../../H-x86_64-mingw32/nios2-elf/lib\libstdc++.a
LOAD c:/altera/15.0/nios2eds/bin/gnu/h-x86_64-mingw32/bin/../lib/gcc/nios2-elf/4.9.1/../../../../../H-x86_64-mingw32/nios2-elf/lib\libm.a
LOAD c:/altera/15.0/nios2eds/bin/gnu/h-x86_64-mingw32/bin/../lib/gcc/nios2-elf/4.9.1\libgcc.a
START GROUP
LOAD c:/altera/15.0/nios2eds/bin/gnu/h-x86_64-mingw32/bin/../lib/gcc/nios2-elf/4.9.1/../../../../../H-x86_64-mingw32/nios2-elf/lib\libc.a
LOAD c:/altera/15.0/nios2eds/bin/gnu/h-x86_64-mingw32/bin/../lib/gcc/nios2-elf/4.9.1\libgcc.a
LOAD ../LT24_final_sw_bsp/\libucosii_bsp.a
LOAD c:/altera/15.0/nios2eds/bin/gnu/h-x86_64-mingw32/bin/../lib/gcc/nios2-elf/4.9.1/../../../../../H-x86_64-mingw32/nios2-elf/lib\libm.a
END GROUP
LOAD c:/altera/15.0/nios2eds/bin/gnu/h-x86_64-mingw32/bin/../lib/gcc/nios2-elf/4.9.1\libgcc.a
                0x0000000002000000                __alt_mem_SDRAM = 0x2000000
                0x0000000004000000                __alt_mem_background_mem = 0x4000000
                0x0000000004004000                __alt_mem_pic_mem = 0x4004000

.entry          0x0000000002000000       0x20
 *(.entry)
 .entry         0x0000000002000000       0x20 ../LT24_final_sw_bsp//obj/HAL/src/crt0.o
                0x0000000002000000                __reset

.exceptions     0x0000000002000020      0x19c
                0x0000000002000020                PROVIDE (__ram_exceptions_start, ABSOLUTE (.))
                0x0000000002000020                . = ALIGN (0x20)
 *(.irq)
 *(.exceptions.entry.label)
 .exceptions.entry.label
                0x0000000002000020        0x0 ../LT24_final_sw_bsp/\libucosii_bsp.a(alt_irq_entry.o)
                0x0000000002000020                alt_irq_entry
 .exceptions.entry.label
                0x0000000002000020        0x0 ../LT24_final_sw_bsp/\libucosii_bsp.a(alt_exception_entry.o)
                0x0000000002000020                alt_exception
 *(.exceptions.entry.user)
 *(.exceptions.entry.ecc_fatal)
 *(.exceptions.entry)
 .exceptions.entry
                0x0000000002000020       0x54 ../LT24_final_sw_bsp/\libucosii_bsp.a(alt_exception_entry.o)
 *(.exceptions.irqtest.user)
 *(.exceptions.irqtest)
 .exceptions.irqtest
                0x0000000002000074       0x10 ../LT24_final_sw_bsp/\libucosii_bsp.a(alt_irq_entry.o)
 *(.exceptions.irqhandler.user)
 *(.exceptions.irqhandler)
 .exceptions.irqhandler
                0x0000000002000084        0x4 ../LT24_final_sw_bsp/\libucosii_bsp.a(alt_irq_entry.o)
 *(.exceptions.irqreturn.user)
 *(.exceptions.irqreturn)
 .exceptions.irqreturn
                0x0000000002000088        0x4 ../LT24_final_sw_bsp/\libucosii_bsp.a(alt_irq_entry.o)
 *(.exceptions.notirq.label)
 .exceptions.notirq.label
                0x000000000200008c        0x0 ../LT24_final_sw_bsp/\libucosii_bsp.a(alt_irq_entry.o)
 *(.exceptions.notirq.user)
 *(.exceptions.notirq)
 .exceptions.notirq
                0x000000000200008c        0x8 ../LT24_final_sw_bsp/\libucosii_bsp.a(alt_exception_entry.o)
 *(.exceptions.soft.user)
 *(.exceptions.soft)
 *(.exceptions.unknown.user)
 *(.exceptions.unknown)
 .exceptions.unknown
                0x0000000002000094        0x4 ../LT24_final_sw_bsp/\libucosii_bsp.a(alt_exception_entry.o)
 *(.exceptions.exit.label)
 .exceptions.exit.label
                0x0000000002000098        0x0 ../LT24_final_sw_bsp/\libucosii_bsp.a(alt_irq_entry.o)
 .exceptions.exit.label
                0x0000000002000098        0x0 ../LT24_final_sw_bsp/\libucosii_bsp.a(alt_exception_entry.o)
 *(.exceptions.exit.user)
 *(.exceptions.exit)
 .exceptions.exit
                0x0000000002000098       0x54 ../LT24_final_sw_bsp/\libucosii_bsp.a(alt_exception_entry.o)
 *(.exceptions)
 .exceptions    0x00000000020000ec       0xd0 ../LT24_final_sw_bsp/\libucosii_bsp.a(alt_irq_handler.o)
                0x00000000020000ec                alt_irq_handler
                0x00000000020001bc                PROVIDE (__ram_exceptions_end, ABSOLUTE (.))
                0x0000000002000020                PROVIDE (__flash_exceptions_start, LOADADDR (.exceptions))

.text           0x00000000020001bc    0x20360
                0x00000000020001bc                PROVIDE (stext, ABSOLUTE (.))
 *(.interp)
 *(.hash)
 *(.dynsym)
 *(.dynstr)
 *(.gnu.version)
 *(.gnu.version_d)
 *(.gnu.version_r)
 *(.rel.init)
 *(.rela.init)
 *(.rel.text .rel.text.* .rel.gnu.linkonce.t.*)
 *(.rela.text .rela.text.* .rela.gnu.linkonce.t.*)
 *(.rel.fini)
 *(.rela.fini)
 *(.rel.rodata .rel.rodata.* .rel.gnu.linkonce.r.*)
 *(.rela.rodata .rela.rodata.* .rela.gnu.linkonce.r.*)
 *(.rel.data .rel.data.* .rel.gnu.linkonce.d.*)
 *(.rela.data .rela.data.* .rela.gnu.linkonce.d.*)
 *(.rel.tdata .rel.tdata.* .rel.gnu.linkonce.td.*)
 *(.rela.tdata .rela.tdata.* .rela.gnu.linkonce.td.*)
 *(.rel.tbss .rel.tbss.* .rel.gnu.linkonce.tb.*)
 *(.rela.tbss .rela.tbss.* .rela.gnu.linkonce.tb.*)
 *(.rel.ctors)
 *(.rela.ctors)
 *(.rel.dtors)
 *(.rela.dtors)
 *(.rel.got)
 *(.rela.got)
 *(.rel.sdata .rel.sdata.* .rel.gnu.linkonce.s.*)
 *(.rela.sdata .rela.sdata.* .rela.gnu.linkonce.s.*)
 *(.rel.sbss .rel.sbss.* .rel.gnu.linkonce.sb.*)
 *(.rela.sbss .rela.sbss.* .rela.gnu.linkonce.sb.*)
 *(.rel.sdata2 .rel.sdata2.* .rel.gnu.linkonce.s2.*)
 *(.rela.sdata2 .rela.sdata2.* .rela.gnu.linkonce.s2.*)
 *(.rel.sbss2 .rel.sbss2.* .rel.gnu.linkonce.sb2.*)
 *(.rela.sbss2 .rela.sbss2.* .rela.gnu.linkonce.sb2.*)
 *(.rel.bss .rel.bss.* .rel.gnu.linkonce.b.*)
 *(.rela.bss .rela.bss.* .rela.gnu.linkonce.b.*)
 *(.rel.plt)
 *(.rela.plt)
 *(.rel.dyn)
 *(.init)
 *(.plt)
 *(.text .stub .text.* .gnu.linkonce.t.*)
 .text          0x00000000020001bc       0x4c ../LT24_final_sw_bsp//obj/HAL/src/crt0.o
                0x00000000020001bc                _start
 .text          0x0000000002000208      0x928 obj/default/demo/gui.o
                0x0000000002000208                GUI_ShowWelcome
                0x00000000020002d8                GUI_ShowInfo
                0x0000000002000338                GUI_ShowTouchPoint
                0x0000000002000390                GUI_InitDraw
                0x00000000020004b4                GUI_Buttons_Draw
                0x00000000020005d8                GUI_CMD_Init
                0x00000000020006f4                GUI_CMD_Draw
                0x00000000020007ac                GUI_CMD_Lightning
                0x00000000020008d8                GUI_Jump_DrawBG
                0x0000000002000998                GUI_Jump_DrawStep
                0x0000000002000a14                GUI_CheckCMD
                0x0000000002000aa0                GUI_CheckGen
 .text          0x0000000002000b30        0x0 obj/default/fonts/tahomabold_20.o
 .text          0x0000000002000b30        0x0 obj/default/fonts/tahomabold_32.o
 .text          0x0000000002000b30      0xae8 obj/default/graphic_lib/ILI9341.o
                0x0000000002000b30                Delay_Ms
                0x0000000002000b7c                LCD_SetCursor
                0x0000000002000c30                LCD_Clear
                0x0000000002000cb0                LCD_DrawPoint
                0x0000000002000d1c                LCD_Init
                0x0000000002001388                LCD_Pattern_Horizon
                0x00000000020014c0                LCD_Pattern_Vertical
                0x00000000020015a0                Set_BUFFER_FLAG
                0x00000000020015dc                Clr_BUFFER_FLAG
 .text          0x0000000002001618      0x3f4 obj/default/graphic_lib/geometry.o
                0x0000000002001618                IsPtInRect
                0x000000000200169c                PtSet
                0x00000000020016dc                RectSet
                0x0000000002001738                RectInflate
                0x00000000020017c0                RectOffset
                0x0000000002001848                RectCopy
                0x00000000020018ac                RectWidth
                0x00000000020018e0                RectHeight
                0x0000000002001914                PtDistance
                0x00000000020019c8                PtCopy
 .text          0x0000000002001a0c     0x2bcc obj/default/graphic_lib/simple_graphics.o
                0x0000000002001a0c                vid_clean_screen
                0x0000000002001a68                vid_clean_usefull
                0x0000000002001ac4                vid_clean_buttons
                0x0000000002001b38                vid_draw_line
                0x0000000002001bfc                vid_draw_DR
                0x0000000002001c74                vid_draw_DL
                0x0000000002001cec                vid_draw_UR
                0x0000000002001d64                vid_draw_UL
                0x0000000002001ddc                vid_scroll_string_quit
                0x0000000002001e1c                vid_scroll_string_init
                0x0000000002001f70                vid_scroll_string
                0x00000000020022e0                vid_move_block
                0x00000000020023fc                vid_print_string
                0x0000000002002504                vid_draw_box
                0x000000000200264c                vid_draw_arrow
                0x0000000002002914                vid_print_char
                0x0000000002002a04                vid_set_pixel
                0x0000000002002aa0                vid_get_pixel
                0x0000000002002ae0                vid_paint_block
                0x0000000002002b74                vid_draw_horiz_line
                0x0000000002002bec                vid_merge_colors
                0x0000000002002c38                vid_color_convert24_16
                0x0000000002002cd8                vid_color_convert16_24
                0x0000000002002d44                vid_copy_line_to_frame_buffer
                0x0000000002002d88                vid_draw_sloped_line
                0x0000000002002ff0                vid_draw_circle
                0x000000000200312c                vid_draw_round_corner_box
                0x00000000020034c8                vid_round_corner_points
                0x0000000002003c00                max3
                0x0000000002003c54                min3
                0x0000000002003ca8                max_diff3
                0x0000000002003d0c                vid_put_pixel_in_span_map
                0x0000000002003e0c                vid_bres_scan_edges
                0x000000000200404c                vid_draw_triangle
                0x00000000020043c4                CopyImage16
                0x00000000020044a8                CropImage16
 .text          0x00000000020045d8      0x9f8 obj/default/graphic_lib/simple_text.o
                0x00000000020045d8                vid_print_string_alpha
                0x0000000002004834                seperate_color_channels
                0x000000000200497c                merge_color_channels
                0x0000000002004aac                read_from_frame
                0x0000000002004af0                alpha_blending
                0x0000000002004d3c                vid_print_char_alpha
                0x0000000002004ef0                vid_string_pixel_length_alpha
 .text          0x0000000002004fd0      0xaf0 obj/default/main.o
                0x0000000002004fd0                task1
                0x0000000002005284                task2
                0x000000000200555c                task3
                0x00000000020059b0                main
 .text          0x0000000002005ac0      0x2cc obj/default/terasic_lib/accelerometer_adxl345_spi.o
                0x0000000002005ac0                ADXL345_SPI_Init
                0x0000000002005b80                ADXL345_SPI_WaitDataReady
                0x0000000002005c18                ADXL345_SPI_IsDataReady
                0x0000000002005c7c                ADXL345_SPI_XYZ_Read
                0x0000000002005d48                ADXL345_SPI_IdRead
 .text          0x0000000002005d8c      0x34c obj/default/terasic_lib/terasic_spi.o
                0x0000000002005d8c                SPI_Init
                0x0000000002005de0                SPI_MultipleWrite
                0x0000000002005efc                SPI_Write
                0x0000000002005f50                SPI_MultipleRead
                0x000000000200608c                SPI_Read
 .text          0x00000000020060d8      0xa38 obj/default/terasic_lib/touch_spi.o
                0x00000000020060d8                Touch_Init
                0x000000000200624c                Touch_UnInit
                0x00000000020062b4                Touch_EmptyFifo
                0x00000000020062ec                Touch_GetXY
                0x0000000002006434                touch_isr
                0x00000000020064a8                touch_empty_fifo
                0x00000000020064d8                touch_is_pen_pressed
                0x0000000002006518                touch_enable_penirq
                0x0000000002006678                touch_clear_input
                0x00000000020066a8                touch_get_xy
                0x00000000020069c0                touch_alarm_callback
                0x0000000002006a38                touch_xy_transform
 .text          0x0000000002006b10      0x130 c:/altera/15.0/nios2eds/bin/gnu/h-x86_64-mingw32/bin/../lib/gcc/nios2-elf/4.9.1/../../../../../H-x86_64-mingw32/nios2-elf/lib\libm.a(lib_a-w_sqrt.o)
                0x0000000002006b10                sqrt
 .text          0x0000000002006c40      0x294 c:/altera/15.0/nios2eds/bin/gnu/h-x86_64-mingw32/bin/../lib/gcc/nios2-elf/4.9.1/../../../../../H-x86_64-mingw32/nios2-elf/lib\libm.a(lib_a-e_sqrt.o)
                0x0000000002006c40                __ieee754_sqrt
 .text          0x0000000002006ed4       0x74 c:/altera/15.0/nios2eds/bin/gnu/h-x86_64-mingw32/bin/../lib/gcc/nios2-elf/4.9.1/../../../../../H-x86_64-mingw32/nios2-elf/lib\libm.a(lib_a-s_fpclassify.o)
                0x0000000002006ed4                __fpclassifyd
 .text          0x0000000002006f48        0x0 c:/altera/15.0/nios2eds/bin/gnu/h-x86_64-mingw32/bin/../lib/gcc/nios2-elf/4.9.1/../../../../../H-x86_64-mingw32/nios2-elf/lib\libm.a(lib_a-s_lib_ver.o)
 .text          0x0000000002006f48        0x8 c:/altera/15.0/nios2eds/bin/gnu/h-x86_64-mingw32/bin/../lib/gcc/nios2-elf/4.9.1/../../../../../H-x86_64-mingw32/nios2-elf/lib\libm.a(lib_a-s_matherr.o)
                0x0000000002006f48                matherr
 .text          0x0000000002006f50      0x12c c:/altera/15.0/nios2eds/bin/gnu/h-x86_64-mingw32/bin/../lib/gcc/nios2-elf/4.9.1\libgcc.a(lib2-divmod.o)
                0x0000000002006fbc                __divsi3
                0x0000000002007010                __modsi3
                0x000000000200706c                __udivsi3
                0x0000000002007074                __umodsi3
 .text          0x000000000200707c      0x89c c:/altera/15.0/nios2eds/bin/gnu/h-x86_64-mingw32/bin/../lib/gcc/nios2-elf/4.9.1\libgcc.a(adddf3.o)
                0x000000000200707c                __adddf3
 .text          0x0000000002007918      0x8cc c:/altera/15.0/nios2eds/bin/gnu/h-x86_64-mingw32/bin/../lib/gcc/nios2-elf/4.9.1\libgcc.a(divdf3.o)
                0x0000000002007918                __divdf3
 .text          0x00000000020081e4       0xe0 c:/altera/15.0/nios2eds/bin/gnu/h-x86_64-mingw32/bin/../lib/gcc/nios2-elf/4.9.1\libgcc.a(ledf2.o)
                0x00000000020081e4                __ledf2
                0x00000000020081e4                __ltdf2
 .text          0x00000000020082c4      0x724 c:/altera/15.0/nios2eds/bin/gnu/h-x86_64-mingw32/bin/../lib/gcc/nios2-elf/4.9.1\libgcc.a(muldf3.o)
                0x00000000020082c4                __muldf3
 .text          0x00000000020089e8      0x8d0 c:/altera/15.0/nios2eds/bin/gnu/h-x86_64-mingw32/bin/../lib/gcc/nios2-elf/4.9.1\libgcc.a(subdf3.o)
                0x00000000020089e8                __subdf3
 .text          0x00000000020092b8       0x88 c:/altera/15.0/nios2eds/bin/gnu/h-x86_64-mingw32/bin/../lib/gcc/nios2-elf/4.9.1\libgcc.a(fixdfsi.o)
                0x00000000020092b8                __fixdfsi
 .text          0x0000000002009340       0xd0 c:/altera/15.0/nios2eds/bin/gnu/h-x86_64-mingw32/bin/../lib/gcc/nios2-elf/4.9.1\libgcc.a(floatsidf.o)
                0x0000000002009340                __floatsidf
 .text          0x0000000002009410       0x64 c:/altera/15.0/nios2eds/bin/gnu/h-x86_64-mingw32/bin/../lib/gcc/nios2-elf/4.9.1\libgcc.a(_clzsi2.o)
                0x0000000002009410                __clzsi2
 .text          0x0000000002009474        0x0 c:/altera/15.0/nios2eds/bin/gnu/h-x86_64-mingw32/bin/../lib/gcc/nios2-elf/4.9.1\libgcc.a(_clz.o)
 .text          0x0000000002009474       0x10 c:/altera/15.0/nios2eds/bin/gnu/h-x86_64-mingw32/bin/../lib/gcc/nios2-elf/4.9.1/../../../../../H-x86_64-mingw32/nios2-elf/lib\libc.a(lib_a-errno.o)
                0x0000000002009474                __errno
 .text          0x0000000002009484        0x0 c:/altera/15.0/nios2eds/bin/gnu/h-x86_64-mingw32/bin/../lib/gcc/nios2-elf/4.9.1/../../../../../H-x86_64-mingw32/nios2-elf/lib\libc.a(lib_a-impure.o)
 .text          0x0000000002009484       0x28 c:/altera/15.0/nios2eds/bin/gnu/h-x86_64-mingw32/bin/../lib/gcc/nios2-elf/4.9.1/../../../../../H-x86_64-mingw32/nios2-elf/lib\libc.a(lib_a-malloc.o)
                0x0000000002009484                malloc
                0x0000000002009498                free
 .text          0x00000000020094ac      0x7a8 c:/altera/15.0/nios2eds/bin/gnu/h-x86_64-mingw32/bin/../lib/gcc/nios2-elf/4.9.1/../../../../../H-x86_64-mingw32/nios2-elf/lib\libc.a(lib_a-mallocr.o)
                0x00000000020094ac                _malloc_r
 .text          0x0000000002009c54      0x138 c:/altera/15.0/nios2eds/bin/gnu/h-x86_64-mingw32/bin/../lib/gcc/nios2-elf/4.9.1/../../../../../H-x86_64-mingw32/nios2-elf/lib\libc.a(lib_a-memcpy.o)
                0x0000000002009c54                memcpy
 .text          0x0000000002009d8c      0x124 c:/altera/15.0/nios2eds/bin/gnu/h-x86_64-mingw32/bin/../lib/gcc/nios2-elf/4.9.1/../../../../../H-x86_64-mingw32/nios2-elf/lib\libc.a(lib_a-memset.o)
                0x0000000002009d8c                memset
 .text          0x0000000002009eb0       0x68 c:/altera/15.0/nios2eds/bin/gnu/h-x86_64-mingw32/bin/../lib/gcc/nios2-elf/4.9.1/../../../../../H-x86_64-mingw32/nios2-elf/lib\libc.a(lib_a-printf.o)
                0x0000000002009eb0                _printf_r
                0x0000000002009edc                printf
 .text          0x0000000002009f18       0xcc c:/altera/15.0/nios2eds/bin/gnu/h-x86_64-mingw32/bin/../lib/gcc/nios2-elf/4.9.1/../../../../../H-x86_64-mingw32/nios2-elf/lib\libc.a(lib_a-puts.o)
                0x0000000002009f18                _puts_r
                0x0000000002009fd0                puts
 .text          0x0000000002009fe4       0x54 c:/altera/15.0/nios2eds/bin/gnu/h-x86_64-mingw32/bin/../lib/gcc/nios2-elf/4.9.1/../../../../../H-x86_64-mingw32/nios2-elf/lib\libc.a(lib_a-sbrkr.o)
                0x0000000002009fe4                _sbrk_r
 .text          0x000000000200a038       0x90 c:/altera/15.0/nios2eds/bin/gnu/h-x86_64-mingw32/bin/../lib/gcc/nios2-elf/4.9.1/../../../../../H-x86_64-mingw32/nios2-elf/lib\libc.a(lib_a-strcpy.o)
                0x000000000200a038                strcpy
 .text          0x000000000200a0c8       0x98 c:/altera/15.0/nios2eds/bin/gnu/h-x86_64-mingw32/bin/../lib/gcc/nios2-elf/4.9.1/../../../../../H-x86_64-mingw32/nios2-elf/lib\libc.a(lib_a-strlen.o)
                0x000000000200a0c8                strlen
 .text          0x000000000200a160     0x2020 c:/altera/15.0/nios2eds/bin/gnu/h-x86_64-mingw32/bin/../lib/gcc/nios2-elf/4.9.1/../../../../../H-x86_64-mingw32/nios2-elf/lib\libc.a(lib_a-vfprintf.o)
                0x000000000200a160                ___vfprintf_internal_r
                0x000000000200c15c                __vfprintf_internal
 .text          0x000000000200c180      0x130 c:/altera/15.0/nios2eds/bin/gnu/h-x86_64-mingw32/bin/../lib/gcc/nios2-elf/4.9.1/../../../../../H-x86_64-mingw32/nios2-elf/lib\libc.a(lib_a-wsetup.o)
                0x000000000200c180                __swsetup_r
 .text          0x000000000200c2b0     0x1928 c:/altera/15.0/nios2eds/bin/gnu/h-x86_64-mingw32/bin/../lib/gcc/nios2-elf/4.9.1/../../../../../H-x86_64-mingw32/nios2-elf/lib\libc.a(lib_a-dtoa.o)
                0x000000000200c4b0                _dtoa_r
 .text          0x000000000200dbd8      0x258 c:/altera/15.0/nios2eds/bin/gnu/h-x86_64-mingw32/bin/../lib/gcc/nios2-elf/4.9.1/../../../../../H-x86_64-mingw32/nios2-elf/lib\libc.a(lib_a-fflush.o)
                0x000000000200dbd8                _fflush_r
                0x000000000200de00                fflush
 .text          0x000000000200de30      0x3a0 c:/altera/15.0/nios2eds/bin/gnu/h-x86_64-mingw32/bin/../lib/gcc/nios2-elf/4.9.1/../../../../../H-x86_64-mingw32/nios2-elf/lib\libc.a(lib_a-findfp.o)
                0x000000000200de40                _cleanup_r
                0x000000000200dfec                __sfmoreglue
                0x000000000200e050                __sfp
                0x000000000200e168                _cleanup
                0x000000000200e180                __sinit
                0x000000000200e190                __sfp_lock_acquire
                0x000000000200e194                __sfp_lock_release
                0x000000000200e198                __sinit_lock_acquire
                0x000000000200e19c                __sinit_lock_release
                0x000000000200e1a0                __fp_lock_all
                0x000000000200e1b8                __fp_unlock_all
 .text          0x000000000200e1d0      0x414 c:/altera/15.0/nios2eds/bin/gnu/h-x86_64-mingw32/bin/../lib/gcc/nios2-elf/4.9.1/../../../../../H-x86_64-mingw32/nios2-elf/lib\libc.a(lib_a-freer.o)
                0x000000000200e1d0                _malloc_trim_r
                0x000000000200e2f4                _free_r
 .text          0x000000000200e5e4      0x4a4 c:/altera/15.0/nios2eds/bin/gnu/h-x86_64-mingw32/bin/../lib/gcc/nios2-elf/4.9.1/../../../../../H-x86_64-mingw32/nios2-elf/lib\libc.a(lib_a-fvwrite.o)
                0x000000000200e5e4                __sfvwrite_r
 .text          0x000000000200ea88      0x170 c:/altera/15.0/nios2eds/bin/gnu/h-x86_64-mingw32/bin/../lib/gcc/nios2-elf/4.9.1/../../../../../H-x86_64-mingw32/nios2-elf/lib\libc.a(lib_a-fwalk.o)
                0x000000000200ea88                _fwalk
                0x000000000200eb40                _fwalk_reent
 .text          0x000000000200ebf8        0x0 c:/altera/15.0/nios2eds/bin/gnu/h-x86_64-mingw32/bin/../lib/gcc/nios2-elf/4.9.1/../../../../../H-x86_64-mingw32/nios2-elf/lib\libc.a(lib_a-int_errno.o)
 .text          0x000000000200ebf8       0xe0 c:/altera/15.0/nios2eds/bin/gnu/h-x86_64-mingw32/bin/../lib/gcc/nios2-elf/4.9.1/../../../../../H-x86_64-mingw32/nios2-elf/lib\libc.a(lib_a-locale.o)
                0x000000000200ebf8                _setlocale_r
                0x000000000200ec74                __locale_charset
                0x000000000200ec80                __locale_mb_cur_max
                0x000000000200ec90                __locale_msgcharset
                0x000000000200ec9c                __locale_cjk_lang
                0x000000000200eca4                _localeconv_r
                0x000000000200ecb0                setlocale
                0x000000000200eccc                localeconv
 .text          0x000000000200ecd8      0x1b8 c:/altera/15.0/nios2eds/bin/gnu/h-x86_64-mingw32/bin/../lib/gcc/nios2-elf/4.9.1/../../../../../H-x86_64-mingw32/nios2-elf/lib\libc.a(lib_a-makebuf.o)
                0x000000000200ecd8                __smakebuf_r
 .text          0x000000000200ee90       0xe8 c:/altera/15.0/nios2eds/bin/gnu/h-x86_64-mingw32/bin/../lib/gcc/nios2-elf/4.9.1/../../../../../H-x86_64-mingw32/nios2-elf/lib\libc.a(lib_a-memchr.o)
                0x000000000200ee90                memchr
 .text          0x000000000200ef78      0x15c c:/altera/15.0/nios2eds/bin/gnu/h-x86_64-mingw32/bin/../lib/gcc/nios2-elf/4.9.1/../../../../../H-x86_64-mingw32/nios2-elf/lib\libc.a(lib_a-memmove.o)
                0x000000000200ef78                memmove
 .text          0x000000000200f0d4      0xf8c c:/altera/15.0/nios2eds/bin/gnu/h-x86_64-mingw32/bin/../lib/gcc/nios2-elf/4.9.1/../../../../../H-x86_64-mingw32/nios2-elf/lib\libc.a(lib_a-mprec.o)
                0x000000000200f0d4                _Balloc
                0x000000000200f17c                _Bfree
                0x000000000200f1a4                __multadd
                0x000000000200f2b8                __s2b
                0x000000000200f3bc                __hi0bits
                0x000000000200f424                __lo0bits
                0x000000000200f4d4                __i2b
                0x000000000200f510                __multiply
                0x000000000200f70c                __pow5mult
                0x000000000200f84c                __lshift
                0x000000000200f994                __mcmp
                0x000000000200f9f4                __mdiff
                0x000000000200fb8c                __ulp
                0x000000000200fbec                __b2d
                0x000000000200fd08                __d2b
                0x000000000200fe44                __ratio
                0x000000000200fee8                _mprec_log10
                0x000000000200ff5c                __copybits
                0x000000000200ffd4                __any_on
 .text          0x0000000002010060      0x5a0 c:/altera/15.0/nios2eds/bin/gnu/h-x86_64-mingw32/bin/../lib/gcc/nios2-elf/4.9.1/../../../../../H-x86_64-mingw32/nios2-elf/lib\libc.a(lib_a-reallocr.o)
                0x0000000002010060                _realloc_r
 .text          0x0000000002010600      0x13c c:/altera/15.0/nios2eds/bin/gnu/h-x86_64-mingw32/bin/../lib/gcc/nios2-elf/4.9.1/../../../../../H-x86_64-mingw32/nios2-elf/lib\libc.a(lib_a-stdio.o)
                0x0000000002010600                __sread
                0x0000000002010654                __seofread
                0x000000000201065c                __swrite
                0x00000000020106d8                __sseek
                0x0000000002010734                __sclose
 .text          0x000000000201073c       0xa4 c:/altera/15.0/nios2eds/bin/gnu/h-x86_64-mingw32/bin/../lib/gcc/nios2-elf/4.9.1/../../../../../H-x86_64-mingw32/nios2-elf/lib\libc.a(lib_a-strcmp.o)
                0x000000000201073c                strcmp
 .text          0x00000000020107e0     0x1494 c:/altera/15.0/nios2eds/bin/gnu/h-x86_64-mingw32/bin/../lib/gcc/nios2-elf/4.9.1/../../../../../H-x86_64-mingw32/nios2-elf/lib\libc.a(lib_a-vfiprintf.o)
                0x00000000020108dc                __sprint_r
                0x00000000020108f4                ___vfiprintf_internal_r
                0x0000000002011c50                __vfiprintf_internal
 .text          0x0000000002011c74       0x5c c:/altera/15.0/nios2eds/bin/gnu/h-x86_64-mingw32/bin/../lib/gcc/nios2-elf/4.9.1/../../../../../H-x86_64-mingw32/nios2-elf/lib\libc.a(lib_a-writer.o)
                0x0000000002011c74                _write_r
 .text          0x0000000002011cd0       0x54 c:/altera/15.0/nios2eds/bin/gnu/h-x86_64-mingw32/bin/../lib/gcc/nios2-elf/4.9.1/../../../../../H-x86_64-mingw32/nios2-elf/lib\libc.a(closer.o)
                0x0000000002011cd0                _close_r
 .text          0x0000000002011d24       0xc4 c:/altera/15.0/nios2eds/bin/gnu/h-x86_64-mingw32/bin/../lib/gcc/nios2-elf/4.9.1/../../../../../H-x86_64-mingw32/nios2-elf/lib\libc.a(lib_a-callocr.o)
                0x0000000002011d24                _calloc_r
 .text          0x0000000002011de8      0x114 c:/altera/15.0/nios2eds/bin/gnu/h-x86_64-mingw32/bin/../lib/gcc/nios2-elf/4.9.1/../../../../../H-x86_64-mingw32/nios2-elf/lib\libc.a(lib_a-fclose.o)
                0x0000000002011de8                _fclose_r
                0x0000000002011ee8                fclose
 .text          0x0000000002011efc      0x1dc c:/altera/15.0/nios2eds/bin/gnu/h-x86_64-mingw32/bin/../lib/gcc/nios2-elf/4.9.1/../../../../../H-x86_64-mingw32/nios2-elf/lib\libc.a(lib_a-fputwc.o)
                0x0000000002011efc                _fputwc_r
                0x0000000002012080                fputwc
 .text          0x00000000020120d8       0x58 c:/altera/15.0/nios2eds/bin/gnu/h-x86_64-mingw32/bin/../lib/gcc/nios2-elf/4.9.1/../../../../../H-x86_64-mingw32/nios2-elf/lib\libc.a(lib_a-fstatr.o)
                0x00000000020120d8                _fstat_r
 .text          0x0000000002012130       0x54 c:/altera/15.0/nios2eds/bin/gnu/h-x86_64-mingw32/bin/../lib/gcc/nios2-elf/4.9.1/../../../../../H-x86_64-mingw32/nios2-elf/lib\libc.a(lib_a-isattyr.o)
                0x0000000002012130                _isatty_r
 .text          0x0000000002012184       0x5c c:/altera/15.0/nios2eds/bin/gnu/h-x86_64-mingw32/bin/../lib/gcc/nios2-elf/4.9.1/../../../../../H-x86_64-mingw32/nios2-elf/lib\libc.a(lib_a-lseekr.o)
                0x0000000002012184                _lseek_r
 .text          0x00000000020121e0       0x5c c:/altera/15.0/nios2eds/bin/gnu/h-x86_64-mingw32/bin/../lib/gcc/nios2-elf/4.9.1/../../../../../H-x86_64-mingw32/nios2-elf/lib\libc.a(lib_a-readr.o)
                0x00000000020121e0                _read_r
 .text          0x000000000201223c      0x170 c:/altera/15.0/nios2eds/bin/gnu/h-x86_64-mingw32/bin/../lib/gcc/nios2-elf/4.9.1/../../../../../H-x86_64-mingw32/nios2-elf/lib\libc.a(lib_a-wbuf.o)
                0x000000000201223c                __swbuf_r
                0x0000000002012390                __swbuf
 .text          0x00000000020123ac      0x174 c:/altera/15.0/nios2eds/bin/gnu/h-x86_64-mingw32/bin/../lib/gcc/nios2-elf/4.9.1/../../../../../H-x86_64-mingw32/nios2-elf/lib\libc.a(lib_a-wcrtomb.o)
                0x00000000020123ac                _wcrtomb_r
                0x0000000002012448                wcrtomb
 .text          0x0000000002012520       0x8c c:/altera/15.0/nios2eds/bin/gnu/h-x86_64-mingw32/bin/../lib/gcc/nios2-elf/4.9.1/../../../../../H-x86_64-mingw32/nios2-elf/lib\libc.a(lib_a-wctomb_r.o)
                0x0000000002012520                __ascii_wctomb
                0x0000000002012550                _wctomb_r
 .text          0x00000000020125ac      0x5c0 c:/altera/15.0/nios2eds/bin/gnu/h-x86_64-mingw32/bin/../lib/gcc/nios2-elf/4.9.1\libgcc.a(_udivdi3.o)
                0x00000000020125ac                __udivdi3
 .text          0x0000000002012b6c      0x590 c:/altera/15.0/nios2eds/bin/gnu/h-x86_64-mingw32/bin/../lib/gcc/nios2-elf/4.9.1\libgcc.a(_umoddi3.o)
                0x0000000002012b6c                __umoddi3
 .text          0x00000000020130fc       0x84 c:/altera/15.0/nios2eds/bin/gnu/h-x86_64-mingw32/bin/../lib/gcc/nios2-elf/4.9.1\libgcc.a(eqdf2.o)
                0x00000000020130fc                __nedf2
                0x00000000020130fc                __eqdf2
 .text          0x0000000002013180       0xe0 c:/altera/15.0/nios2eds/bin/gnu/h-x86_64-mingw32/bin/../lib/gcc/nios2-elf/4.9.1\libgcc.a(gedf2.o)
                0x0000000002013180                __gedf2
                0x0000000002013180                __gtdf2
 .text          0x0000000002013260       0xa4 c:/altera/15.0/nios2eds/bin/gnu/h-x86_64-mingw32/bin/../lib/gcc/nios2-elf/4.9.1\libgcc.a(floatunsidf.o)
                0x0000000002013260                __floatunsidf
 .text          0x0000000002013304      0x140 ../LT24_final_sw_bsp/\libucosii_bsp.a(alt_alarm_start.o)
                0x0000000002013304                alt_alarm_start
 .text          0x0000000002013444      0x120 ../LT24_final_sw_bsp/\libucosii_bsp.a(alt_close.o)
                0x0000000002013494                close
 .text          0x0000000002013564       0x2c ../LT24_final_sw_bsp/\libucosii_bsp.a(alt_dev.o)
 .text          0x0000000002013590        0x0 ../LT24_final_sw_bsp/\libucosii_bsp.a(alt_errno.o)
 .text          0x0000000002013590      0x100 ../LT24_final_sw_bsp/\libucosii_bsp.a(alt_fstat.o)
                0x00000000020135e0                fstat
 .text          0x0000000002013690      0x1e0 ../LT24_final_sw_bsp/\libucosii_bsp.a(alt_iic.o)
                0x0000000002013690                alt_ic_isr_register
                0x00000000020136e0                alt_ic_irq_enable
                0x0000000002013780                alt_ic_irq_disable
                0x0000000002013824                alt_ic_irq_enabled
 .text          0x0000000002013870       0xf0 ../LT24_final_sw_bsp/\libucosii_bsp.a(alt_iic_isr_register.o)
                0x0000000002013870                alt_iic_isr_register
 .text          0x0000000002013960        0x0 ../LT24_final_sw_bsp/\libucosii_bsp.a(alt_irq_entry.o)
 .text          0x0000000002013960        0x0 ../LT24_final_sw_bsp/\libucosii_bsp.a(alt_irq_handler.o)
 .text          0x0000000002013960        0x0 ../LT24_final_sw_bsp/\libucosii_bsp.a(alt_irq_vars.o)
 .text          0x0000000002013960       0xf4 ../LT24_final_sw_bsp/\libucosii_bsp.a(alt_isatty.o)
                0x00000000020139b0                isatty
 .text          0x0000000002013a54       0xe4 ../LT24_final_sw_bsp/\libucosii_bsp.a(alt_load.o)
                0x0000000002013ab8                alt_load
 .text          0x0000000002013b38      0x124 ../LT24_final_sw_bsp/\libucosii_bsp.a(alt_lseek.o)
                0x0000000002013b88                lseek
 .text          0x0000000002013c5c       0xd4 ../LT24_final_sw_bsp/\libucosii_bsp.a(alt_main.o)
                0x0000000002013c5c                alt_main
 .text          0x0000000002013d30      0x14c ../LT24_final_sw_bsp/\libucosii_bsp.a(alt_read.o)
                0x0000000002013d80                read
 .text          0x0000000002013e7c       0x60 ../LT24_final_sw_bsp/\libucosii_bsp.a(alt_release_fd.o)
                0x0000000002013e7c                alt_release_fd
 .text          0x0000000002013edc       0xb0 ../LT24_final_sw_bsp/\libucosii_bsp.a(alt_sbrk.o)
                0x0000000002013edc                sbrk
 .text          0x0000000002013f8c      0x19c ../LT24_final_sw_bsp/\libucosii_bsp.a(alt_tick.o)
                0x0000000002013f8c                alt_alarm_stop
                0x0000000002014024                alt_tick
 .text          0x0000000002014128      0x124 ../LT24_final_sw_bsp/\libucosii_bsp.a(alt_usleep.o)
                0x0000000002014128                usleep
 .text          0x000000000201424c      0x148 ../LT24_final_sw_bsp/\libucosii_bsp.a(alt_write.o)
                0x000000000201429c                write
 .text          0x0000000002014394      0x11c ../LT24_final_sw_bsp/\libucosii_bsp.a(alt_env_lock.o)
                0x0000000002014394                __env_lock
                0x0000000002014454                __env_unlock
 .text          0x00000000020144b0      0x1f0 ../LT24_final_sw_bsp/\libucosii_bsp.a(alt_malloc_lock.o)
                0x00000000020144b0                __malloc_lock
                0x00000000020145d0                __malloc_unlock
 .text          0x00000000020146a0     0x1fe0 ../LT24_final_sw_bsp/\libucosii_bsp.a(os_core.o)
                0x00000000020146a0                OSEventNameGet
                0x00000000020147c0                OSEventNameSet
                0x00000000020148fc                OSEventPendMulti
                0x0000000002014f0c                OSInit
                0x0000000002014f60                OSIntEnter
                0x0000000002014fdc                OSIntExit
                0x00000000020150d0                OSSchedLock
                0x0000000002015158                OSSchedUnlock
                0x0000000002015230                OSStart
                0x000000000201529c                OSStatInit
                0x0000000002015348                OSTimeTick
                0x0000000002015564                OSVersion
                0x0000000002015584                OS_Dummy
                0x00000000020155a0                OS_EventTaskRdy
                0x0000000002015738                OS_EventTaskWait
                0x0000000002015844                OS_EventTaskWaitMulti
                0x0000000002015990                OS_EventTaskRemove
                0x0000000002015a44                OS_EventTaskRemoveMulti
                0x0000000002015b40                OS_EventWaitListInit
                0x0000000002015f04                OS_MemClr
                0x0000000002015f54                OS_MemCopy
                0x0000000002015fb8                OS_Sched
                0x00000000020160f4                OS_StrCopy
                0x0000000002016168                OS_StrLen
                0x00000000020161bc                OS_TaskIdle
                0x0000000002016218                OS_TaskStat
                0x00000000020162e4                OS_TaskStatStkChk
                0x00000000020163ac                OS_TCBInit
 .text          0x0000000002016680      0x18c ../LT24_final_sw_bsp/\libucosii_bsp.a(os_dbg.o)
                0x0000000002016680                OSDebugInit
 .text          0x000000000201680c     0x181c ../LT24_final_sw_bsp/\libucosii_bsp.a(os_flag.o)
                0x000000000201680c                OSFlagAccept
                0x0000000002016b14                OSFlagCreate
                0x0000000002016c3c                OSFlagDel
                0x0000000002016eac                OSFlagNameGet
                0x0000000002016fdc                OSFlagNameSet
                0x000000000201712c                OSFlagPend
                0x000000000201771c                OSFlagPendGetFlagsRdy
                0x0000000002017784                OSFlagPost
                0x0000000002017b0c                OSFlagQuery
                0x0000000002017d94                OS_FlagInit
                0x0000000002017f88                OS_FlagUnlink
 .text          0x0000000002018028      0xb88 ../LT24_final_sw_bsp/\libucosii_bsp.a(os_mbox.o)
                0x0000000002018028                OSMboxAccept
                0x00000000020180c0                OSMboxCreate
                0x00000000020181bc                OSMboxDel
                0x0000000002018424                OSMboxPend
                0x00000000020186c8                OSMboxPendAbort
                0x0000000002018834                OSMboxPost
                0x0000000002018944                OSMboxPostOpt
                0x0000000002018aa0                OSMboxQuery
 .text          0x0000000002018bb0      0x784 ../LT24_final_sw_bsp/\libucosii_bsp.a(os_mem.o)
                0x0000000002018bb0                OSMemCreate
                0x0000000002018da4                OSMemGet
                0x0000000002018e94                OSMemNameGet
                0x0000000002018f8c                OSMemNameSet
                0x00000000020190a4                OSMemPut
                0x000000000201917c                OSMemQuery
                0x0000000002019264                OS_MemInit
 .text          0x0000000002019334     0x129c ../LT24_final_sw_bsp/\libucosii_bsp.a(os_mutex.o)
                0x0000000002019334                OSMutexAccept
                0x00000000020194f8                OSMutexCreate
                0x00000000020196e0                OSMutexDel
                0x0000000002019a04                OSMutexPend
                0x000000000201a05c                OSMutexPost
                0x000000000201a294                OSMutexQuery
 .text          0x000000000201a5d0     0x1210 ../LT24_final_sw_bsp/\libucosii_bsp.a(os_q.o)
                0x000000000201a5d0                OSQAccept
                0x000000000201a710                OSQCreate
                0x000000000201a90c                OSQDel
                0x000000000201abd4                OSQFlush
                0x000000000201ac8c                OSQPend
                0x000000000201af88                OSQPendAbort
                0x000000000201b0f4                OSQPost
                0x000000000201b25c                OSQPostFront
                0x000000000201b3cc                OSQPostOpt
                0x000000000201b5d8                OSQQuery
                0x000000000201b734                OS_QInit
 .text          0x000000000201b7e0      0xb08 ../LT24_final_sw_bsp/\libucosii_bsp.a(os_sem.o)
                0x000000000201b7e0                OSSemAccept
                0x000000000201b890                OSSemCreate
                0x000000000201b990                OSSemDel
                0x000000000201bbf8                OSSemPend
                0x000000000201be60                OSSemPendAbort
                0x000000000201bfcc                OSSemPost
                0x000000000201c0dc                OSSemQuery
                0x000000000201c1ec                OSSemSet
 .text          0x000000000201c2e8     0x18f4 ../LT24_final_sw_bsp/\libucosii_bsp.a(os_task.o)
                0x000000000201c2e8                OSTaskChangePrio
                0x000000000201c828                OSTaskCreate
                0x000000000201c9e4                OSTaskCreateExt
                0x000000000201cbd0                OSTaskDel
                0x000000000201cfb0                OSTaskDelReq
                0x000000000201d108                OSTaskNameGet
                0x000000000201d2b0                OSTaskNameSet
                0x000000000201d470                OSTaskResume
                0x000000000201d668                OSTaskStkChk
                0x000000000201d830                OSTaskSuspend
                0x000000000201da44                OSTaskQuery
                0x000000000201db70                OS_TaskStkClr
 .text          0x000000000201dbdc      0x560 ../LT24_final_sw_bsp/\libucosii_bsp.a(os_time.o)
                0x000000000201dbdc                OSTimeDly
                0x000000000201dd24                OSTimeDlyHMSM
                0x000000000201de84                OSTimeDlyResume
                0x000000000201e074                OSTimeGet
                0x000000000201e0d8                OSTimeSet
 .text          0x000000000201e13c       0xcc ../LT24_final_sw_bsp/\libucosii_bsp.a(alt_sys_init.o)
                0x000000000201e174                alt_irq_init
                0x000000000201e1a8                alt_sys_init
 .text          0x000000000201e208      0x164 ../LT24_final_sw_bsp/\libucosii_bsp.a(altera_avalon_jtag_uart_fd.o)
                0x000000000201e208                altera_avalon_jtag_uart_read_fd
                0x000000000201e268                altera_avalon_jtag_uart_write_fd
                0x000000000201e2c8                altera_avalon_jtag_uart_close_fd
                0x000000000201e318                altera_avalon_jtag_uart_ioctl_fd
 .text          0x000000000201e36c      0x568 ../LT24_final_sw_bsp/\libucosii_bsp.a(altera_avalon_jtag_uart_init.o)
                0x000000000201e36c                altera_avalon_jtag_uart_init
                0x000000000201e86c                altera_avalon_jtag_uart_close
 .text          0x000000000201e8d4       0xec ../LT24_final_sw_bsp/\libucosii_bsp.a(altera_avalon_jtag_uart_ioctl.o)
                0x000000000201e8d4                altera_avalon_jtag_uart_ioctl
 .text          0x000000000201e9c0      0x2b4 ../LT24_final_sw_bsp/\libucosii_bsp.a(altera_avalon_jtag_uart_read.o)
                0x000000000201e9c0                altera_avalon_jtag_uart_read
 .text          0x000000000201ec74      0x2c0 ../LT24_final_sw_bsp/\libucosii_bsp.a(altera_avalon_jtag_uart_write.o)
                0x000000000201ec74                altera_avalon_jtag_uart_write
 .text          0x000000000201ef34      0x204 ../LT24_final_sw_bsp/\libucosii_bsp.a(altera_avalon_spi.o)
                0x000000000201ef34                alt_avalon_spi_command
 .text          0x000000000201f138       0xfc ../LT24_final_sw_bsp/\libucosii_bsp.a(altera_avalon_timer_sc.o)
                0x000000000201f1ac                alt_avalon_timer_sc_init
 .text          0x000000000201f234      0x158 ../LT24_final_sw_bsp/\libucosii_bsp.a(alt_busy_sleep.o)
                0x000000000201f234                alt_busy_sleep
 .text          0x000000000201f38c       0x44 ../LT24_final_sw_bsp/\libucosii_bsp.a(alt_dcache_flush_all.o)
                0x000000000201f38c                alt_dcache_flush_all
 .text          0x000000000201f3d0       0xf4 ../LT24_final_sw_bsp/\libucosii_bsp.a(alt_dev_llist_insert.o)
                0x000000000201f420                alt_dev_llist_insert
 .text          0x000000000201f4c4       0x5c ../LT24_final_sw_bsp/\libucosii_bsp.a(alt_do_ctors.o)
                0x000000000201f4c4                _do_ctors
 .text          0x000000000201f520       0x5c ../LT24_final_sw_bsp/\libucosii_bsp.a(alt_do_dtors.o)
                0x000000000201f520                _do_dtors
 .text          0x000000000201f57c        0x0 ../LT24_final_sw_bsp/\libucosii_bsp.a(alt_exception_entry.o)
 .text          0x000000000201f57c       0x30 ../LT24_final_sw_bsp/\libucosii_bsp.a(alt_icache_flush_all.o)
                0x000000000201f57c                alt_icache_flush_all
 .text          0x000000000201f5ac      0x138 ../LT24_final_sw_bsp/\libucosii_bsp.a(alt_io_redirect.o)
                0x000000000201f66c                alt_io_redirect
 .text          0x000000000201f6e4      0x274 ../LT24_final_sw_bsp/\libucosii_bsp.a(alt_open.o)
                0x000000000201f800                open
 .text          0x000000000201f958       0x20 ../LT24_final_sw_bsp/\libucosii_bsp.a(altera_nios2_qsys_irq.o)
                0x000000000201f958                altera_nios2_qsys_irq_init
 .text          0x000000000201f978       0xd0 ../LT24_final_sw_bsp/\libucosii_bsp.a(os_cpu_a.o)
                0x000000000201f978                OSCtxSw
                0x000000000201f978                OSIntCtxSw
                0x000000000201fa04                OSStartHighRdy
                0x000000000201fa24                OSStartTsk
 .text          0x000000000201fa48      0x3fc ../LT24_final_sw_bsp/\libucosii_bsp.a(os_cpu_c.o)
                0x000000000201fa48                OSTaskStkInit
                0x000000000201fd3c                OSTaskCreateHook
                0x000000000201fd5c                OSTaskDelHook
                0x000000000201fd7c                OSTaskSwHook
                0x000000000201fd98                OSTaskStatHook
                0x000000000201fdb4                OSTimeTickHook
                0x000000000201fdd0                OSInitHookBegin
                0x000000000201fdec                OSInitHookEnd
                0x000000000201fe08                OSTaskIdleHook
                0x000000000201fe24                OSTCBInitHook
 .text          0x000000000201fe44       0x90 ../LT24_final_sw_bsp/\libucosii_bsp.a(alt_find_dev.o)
                0x000000000201fe44                alt_find_dev
 .text          0x000000000201fed4      0x114 ../LT24_final_sw_bsp/\libucosii_bsp.a(alt_find_file.o)
                0x000000000201fed4                alt_find_file
 .text          0x000000000201ffe8       0xfc ../LT24_final_sw_bsp/\libucosii_bsp.a(alt_get_fd.o)
                0x000000000201ffe8                alt_get_fd
 .text          0x00000000020200e4       0x8c ../LT24_final_sw_bsp/\libucosii_bsp.a(alt_icache_flush.o)
                0x00000000020200e4                alt_icache_flush
 .text          0x0000000002020170       0x14 c:/altera/15.0/nios2eds/bin/gnu/h-x86_64-mingw32/bin/../lib/gcc/nios2-elf/4.9.1/../../../../../H-x86_64-mingw32/nios2-elf/lib\libc.a(lib_a-atexit.o)
                0x0000000002020170                atexit
 .text          0x0000000002020184       0x38 c:/altera/15.0/nios2eds/bin/gnu/h-x86_64-mingw32/bin/../lib/gcc/nios2-elf/4.9.1/../../../../../H-x86_64-mingw32/nios2-elf/lib\libc.a(lib_a-exit.o)
                0x0000000002020184                exit
 .text          0x00000000020201bc       0x7c c:/altera/15.0/nios2eds/bin/gnu/h-x86_64-mingw32/bin/../lib/gcc/nios2-elf/4.9.1/../../../../../H-x86_64-mingw32/nios2-elf/lib\libc.a(lib_a-memcmp.o)
                0x00000000020201bc                memcmp
 .text          0x0000000002020238      0x114 c:/altera/15.0/nios2eds/bin/gnu/h-x86_64-mingw32/bin/../lib/gcc/nios2-elf/4.9.1/../../../../../H-x86_64-mingw32/nios2-elf/lib\libc.a(lib_a-__atexit.o)
                0x0000000002020238                __register_exitproc
 .text          0x000000000202034c      0x194 c:/altera/15.0/nios2eds/bin/gnu/h-x86_64-mingw32/bin/../lib/gcc/nios2-elf/4.9.1/../../../../../H-x86_64-mingw32/nios2-elf/lib\libc.a(lib_a-__call_atexit.o)
                0x000000000202034c                __call_exitprocs
 .text          0x00000000020204e0       0x3c ../LT24_final_sw_bsp/\libucosii_bsp.a(alt_exit.o)
                0x00000000020204e0                _exit
 *(.gnu.warning.*)
 *(.fini)
                0x000000000202051c                PROVIDE (__etext, ABSOLUTE (.))
                0x000000000202051c                PROVIDE (_etext, ABSOLUTE (.))
                0x000000000202051c                PROVIDE (etext, ABSOLUTE (.))
 *(.eh_frame_hdr)
                0x000000000202051c                . = ALIGN (0x4)
                0x000000000202051c                PROVIDE (__preinit_array_start, ABSOLUTE (.))
 *(.preinit_array)
                0x000000000202051c                PROVIDE (__preinit_array_end, ABSOLUTE (.))
                0x000000000202051c                PROVIDE (__init_array_start, ABSOLUTE (.))
 *(.init_array)
                0x000000000202051c                PROVIDE (__init_array_end, ABSOLUTE (.))
                0x000000000202051c                PROVIDE (__fini_array_start, ABSOLUTE (.))
 *(.fini_array)
                0x000000000202051c                PROVIDE (__fini_array_end, ABSOLUTE (.))
 *(.eh_frame)
 *(.gcc_except_table .gcc_except_table.*)
 *(.dynamic)
                0x000000000202051c                PROVIDE (__CTOR_LIST__, ABSOLUTE (.))
 *(.ctors)
 *(SORT(.ctors.*))
                0x000000000202051c                PROVIDE (__CTOR_END__, ABSOLUTE (.))
                0x000000000202051c                PROVIDE (__DTOR_LIST__, ABSOLUTE (.))
 *(.dtors)
 *(SORT(.dtors.*))
                0x000000000202051c                PROVIDE (__DTOR_END__, ABSOLUTE (.))
 *(.jcr)
                0x000000000202051c                . = ALIGN (0x4)

.rodata         0x000000000202051c    0x1a3c4
                0x000000000202051c                PROVIDE (__ram_rodata_start, ABSOLUTE (.))
                0x000000000202051c                . = ALIGN (0x4)
 *(.rodata .rodata.* .gnu.linkonce.r.*)
 .rodata        0x000000000202051c       0x34 obj/default/demo/gui.o
 .rodata        0x0000000002020550     0x77f2 obj/default/fonts/tahomabold_20.o
 .rodata        0x0000000002027d42    0x12520 obj/default/fonts/tahomabold_32.o
 *fill*         0x000000000203a262        0x2 
 .rodata        0x000000000203a264       0x58 obj/default/graphic_lib/simple_graphics.o
 .rodata        0x000000000203a2bc       0x28 obj/default/graphic_lib/simple_text.o
 .rodata        0x000000000203a2e4      0x1d8 obj/default/main.o
 .rodata.str1.4
                0x000000000203a4bc        0x5 c:/altera/15.0/nios2eds/bin/gnu/h-x86_64-mingw32/bin/../lib/gcc/nios2-elf/4.9.1/../../../../../H-x86_64-mingw32/nios2-elf/lib\libm.a(lib_a-w_sqrt.o)
                                          0x8 (size before relaxing)
 .rodata        0x000000000203a4c1      0x100 c:/altera/15.0/nios2eds/bin/gnu/h-x86_64-mingw32/bin/../lib/gcc/nios2-elf/4.9.1\libgcc.a(_clz.o)
                0x000000000203a4c1                __clz_tab
 *fill*         0x000000000203a5c1        0x3 
 .rodata.str1.4
                0x000000000203a5c4        0x2 c:/altera/15.0/nios2eds/bin/gnu/h-x86_64-mingw32/bin/../lib/gcc/nios2-elf/4.9.1/../../../../../H-x86_64-mingw32/nios2-elf/lib\libc.a(lib_a-impure.o)
                                          0x4 (size before relaxing)
 *fill*         0x000000000203a5c6        0x2 
 .rodata.str1.4
                0x000000000203a5c8        0x2 c:/altera/15.0/nios2eds/bin/gnu/h-x86_64-mingw32/bin/../lib/gcc/nios2-elf/4.9.1/../../../../../H-x86_64-mingw32/nios2-elf/lib\libc.a(lib_a-puts.o)
                                          0x4 (size before relaxing)
 *fill*         0x000000000203a5ca        0x2 
 .rodata.str1.4
                0x000000000203a5cc       0x42 c:/altera/15.0/nios2eds/bin/gnu/h-x86_64-mingw32/bin/../lib/gcc/nios2-elf/4.9.1/../../../../../H-x86_64-mingw32/nios2-elf/lib\libc.a(lib_a-vfprintf.o)
                                         0x44 (size before relaxing)
 .rodata        0x000000000203a60e       0x20 c:/altera/15.0/nios2eds/bin/gnu/h-x86_64-mingw32/bin/../lib/gcc/nios2-elf/4.9.1/../../../../../H-x86_64-mingw32/nios2-elf/lib\libc.a(lib_a-vfprintf.o)
 *fill*         0x000000000203a62e        0x2 
 .rodata.str1.4
                0x000000000203a630       0x10 c:/altera/15.0/nios2eds/bin/gnu/h-x86_64-mingw32/bin/../lib/gcc/nios2-elf/4.9.1/../../../../../H-x86_64-mingw32/nios2-elf/lib\libc.a(lib_a-dtoa.o)
                                         0x14 (size before relaxing)
 .rodata.str1.4
                0x000000000203a640        0xc c:/altera/15.0/nios2eds/bin/gnu/h-x86_64-mingw32/bin/../lib/gcc/nios2-elf/4.9.1/../../../../../H-x86_64-mingw32/nios2-elf/lib\libc.a(lib_a-locale.o)
                                         0x14 (size before relaxing)
 .rodata        0x000000000203a64c      0x124 c:/altera/15.0/nios2eds/bin/gnu/h-x86_64-mingw32/bin/../lib/gcc/nios2-elf/4.9.1/../../../../../H-x86_64-mingw32/nios2-elf/lib\libc.a(lib_a-mprec.o)
                0x000000000203a658                __mprec_tinytens
                0x000000000203a680                __mprec_bigtens
                0x000000000203a6a8                __mprec_tens
 .rodata.str1.4
                0x0000000000000000       0x30 c:/altera/15.0/nios2eds/bin/gnu/h-x86_64-mingw32/bin/../lib/gcc/nios2-elf/4.9.1/../../../../../H-x86_64-mingw32/nios2-elf/lib\libc.a(lib_a-vfiprintf.o)
 .rodata        0x000000000203a770       0x20 c:/altera/15.0/nios2eds/bin/gnu/h-x86_64-mingw32/bin/../lib/gcc/nios2-elf/4.9.1/../../../../../H-x86_64-mingw32/nios2-elf/lib\libc.a(lib_a-vfiprintf.o)
 .rodata        0x000000000203a790        0xc ../LT24_final_sw_bsp/\libucosii_bsp.a(alt_dev.o)
 .rodata        0x000000000203a79c       0x10 ../LT24_final_sw_bsp/\libucosii_bsp.a(alt_main.o)
 .rodata        0x000000000203a7ac      0x120 ../LT24_final_sw_bsp/\libucosii_bsp.a(os_core.o)
                0x000000000203a7ac                OSUnMapTbl
 .rodata        0x000000000203a8cc       0x10 ../LT24_final_sw_bsp/\libucosii_bsp.a(alt_sys_init.o)
 .rodata        0x000000000203a8dc        0x4 ../LT24_final_sw_bsp/\libucosii_bsp.a(os_cpu_c.o)
 *(.rodata1)
                0x000000000203a8e0                . = ALIGN (0x4)
                0x000000000203a8e0                PROVIDE (__ram_rodata_end, ABSOLUTE (.))
                0x000000000202051c                PROVIDE (__flash_rodata_start, LOADADDR (.rodata))

.rwdata         0x000000000203a8e0     0x3744 load address 0x000000000203e024
                0x000000000203a8e0                PROVIDE (__ram_rwdata_start, ABSOLUTE (.))
                0x000000000203a8e0                . = ALIGN (0x4)
 *(.got.plt)
 *(.got)
 *(.data1)
 *(.data .data.* .gnu.linkonce.d.*)
 .data          0x000000000203a8e0        0x0 ../LT24_final_sw_bsp//obj/HAL/src/crt0.o
 .data          0x000000000203a8e0       0x14 obj/default/demo/gui.o
                0x000000000203a8e0                szPallete
 .data          0x000000000203a8f4      0xbc0 obj/default/fonts/tahomabold_20.o
                0x000000000203a8f4                tahomabold_20
 .data          0x000000000203b4b4      0xbc0 obj/default/fonts/tahomabold_32.o
                0x000000000203b4b4                tahomabold_32
 .data          0x000000000203c074        0x0 obj/default/graphic_lib/ILI9341.o
 .data          0x000000000203c074        0x0 obj/default/graphic_lib/geometry.o
 .data          0x000000000203c074      0x415 obj/default/graphic_lib/simple_graphics.o
                0x000000000203c074                cour10_font_array
 .data          0x000000000203c489        0x0 obj/default/graphic_lib/simple_text.o
 .data          0x000000000203c489        0x0 obj/default/main.o
 .data          0x000000000203c489        0x0 obj/default/terasic_lib/accelerometer_adxl345_spi.o
 .data          0x000000000203c489        0x0 obj/default/terasic_lib/terasic_spi.o
 .data          0x000000000203c489        0x0 obj/default/terasic_lib/touch_spi.o
 .data          0x000000000203c489        0x0 c:/altera/15.0/nios2eds/bin/gnu/h-x86_64-mingw32/bin/../lib/gcc/nios2-elf/4.9.1/../../../../../H-x86_64-mingw32/nios2-elf/lib\libm.a(lib_a-w_sqrt.o)
 .data          0x000000000203c489        0x0 c:/altera/15.0/nios2eds/bin/gnu/h-x86_64-mingw32/bin/../lib/gcc/nios2-elf/4.9.1/../../../../../H-x86_64-mingw32/nios2-elf/lib\libm.a(lib_a-e_sqrt.o)
 .data          0x000000000203c489        0x0 c:/altera/15.0/nios2eds/bin/gnu/h-x86_64-mingw32/bin/../lib/gcc/nios2-elf/4.9.1/../../../../../H-x86_64-mingw32/nios2-elf/lib\libm.a(lib_a-s_fpclassify.o)
 .data          0x000000000203c489        0x0 c:/altera/15.0/nios2eds/bin/gnu/h-x86_64-mingw32/bin/../lib/gcc/nios2-elf/4.9.1/../../../../../H-x86_64-mingw32/nios2-elf/lib\libm.a(lib_a-s_lib_ver.o)
 .data          0x000000000203c489        0x0 c:/altera/15.0/nios2eds/bin/gnu/h-x86_64-mingw32/bin/../lib/gcc/nios2-elf/4.9.1/../../../../../H-x86_64-mingw32/nios2-elf/lib\libm.a(lib_a-s_matherr.o)
 .data          0x000000000203c489        0x0 c:/altera/15.0/nios2eds/bin/gnu/h-x86_64-mingw32/bin/../lib/gcc/nios2-elf/4.9.1\libgcc.a(lib2-divmod.o)
 .data          0x000000000203c489        0x0 c:/altera/15.0/nios2eds/bin/gnu/h-x86_64-mingw32/bin/../lib/gcc/nios2-elf/4.9.1\libgcc.a(adddf3.o)
 .data          0x000000000203c489        0x0 c:/altera/15.0/nios2eds/bin/gnu/h-x86_64-mingw32/bin/../lib/gcc/nios2-elf/4.9.1\libgcc.a(divdf3.o)
 .data          0x000000000203c489        0x0 c:/altera/15.0/nios2eds/bin/gnu/h-x86_64-mingw32/bin/../lib/gcc/nios2-elf/4.9.1\libgcc.a(ledf2.o)
 .data          0x000000000203c489        0x0 c:/altera/15.0/nios2eds/bin/gnu/h-x86_64-mingw32/bin/../lib/gcc/nios2-elf/4.9.1\libgcc.a(muldf3.o)
 .data          0x000000000203c489        0x0 c:/altera/15.0/nios2eds/bin/gnu/h-x86_64-mingw32/bin/../lib/gcc/nios2-elf/4.9.1\libgcc.a(subdf3.o)
 .data          0x000000000203c489        0x0 c:/altera/15.0/nios2eds/bin/gnu/h-x86_64-mingw32/bin/../lib/gcc/nios2-elf/4.9.1\libgcc.a(fixdfsi.o)
 .data          0x000000000203c489        0x0 c:/altera/15.0/nios2eds/bin/gnu/h-x86_64-mingw32/bin/../lib/gcc/nios2-elf/4.9.1\libgcc.a(floatsidf.o)
 .data          0x000000000203c489        0x0 c:/altera/15.0/nios2eds/bin/gnu/h-x86_64-mingw32/bin/../lib/gcc/nios2-elf/4.9.1\libgcc.a(_clzsi2.o)
 .data          0x000000000203c489        0x0 c:/altera/15.0/nios2eds/bin/gnu/h-x86_64-mingw32/bin/../lib/gcc/nios2-elf/4.9.1\libgcc.a(_clz.o)
 .data          0x000000000203c489        0x0 c:/altera/15.0/nios2eds/bin/gnu/h-x86_64-mingw32/bin/../lib/gcc/nios2-elf/4.9.1/../../../../../H-x86_64-mingw32/nios2-elf/lib\libc.a(lib_a-errno.o)
 *fill*         0x000000000203c489        0x3 
 .data          0x000000000203c48c      0x424 c:/altera/15.0/nios2eds/bin/gnu/h-x86_64-mingw32/bin/../lib/gcc/nios2-elf/4.9.1/../../../../../H-x86_64-mingw32/nios2-elf/lib\libc.a(lib_a-impure.o)
 .data          0x000000000203c8b0        0x0 c:/altera/15.0/nios2eds/bin/gnu/h-x86_64-mingw32/bin/../lib/gcc/nios2-elf/4.9.1/../../../../../H-x86_64-mingw32/nios2-elf/lib\libc.a(lib_a-malloc.o)
 .data          0x000000000203c8b0      0x408 c:/altera/15.0/nios2eds/bin/gnu/h-x86_64-mingw32/bin/../lib/gcc/nios2-elf/4.9.1/../../../../../H-x86_64-mingw32/nios2-elf/lib\libc.a(lib_a-mallocr.o)
                0x000000000203c8b0                __malloc_av_
 .data          0x000000000203ccb8        0x0 c:/altera/15.0/nios2eds/bin/gnu/h-x86_64-mingw32/bin/../lib/gcc/nios2-elf/4.9.1/../../../../../H-x86_64-mingw32/nios2-elf/lib\libc.a(lib_a-memcpy.o)
 .data          0x000000000203ccb8        0x0 c:/altera/15.0/nios2eds/bin/gnu/h-x86_64-mingw32/bin/../lib/gcc/nios2-elf/4.9.1/../../../../../H-x86_64-mingw32/nios2-elf/lib\libc.a(lib_a-memset.o)
 .data          0x000000000203ccb8        0x0 c:/altera/15.0/nios2eds/bin/gnu/h-x86_64-mingw32/bin/../lib/gcc/nios2-elf/4.9.1/../../../../../H-x86_64-mingw32/nios2-elf/lib\libc.a(lib_a-printf.o)
 .data          0x000000000203ccb8        0x0 c:/altera/15.0/nios2eds/bin/gnu/h-x86_64-mingw32/bin/../lib/gcc/nios2-elf/4.9.1/../../../../../H-x86_64-mingw32/nios2-elf/lib\libc.a(lib_a-puts.o)
 .data          0x000000000203ccb8        0x0 c:/altera/15.0/nios2eds/bin/gnu/h-x86_64-mingw32/bin/../lib/gcc/nios2-elf/4.9.1/../../../../../H-x86_64-mingw32/nios2-elf/lib\libc.a(lib_a-sbrkr.o)
 .data          0x000000000203ccb8        0x0 c:/altera/15.0/nios2eds/bin/gnu/h-x86_64-mingw32/bin/../lib/gcc/nios2-elf/4.9.1/../../../../../H-x86_64-mingw32/nios2-elf/lib\libc.a(lib_a-strcpy.o)
 .data          0x000000000203ccb8        0x0 c:/altera/15.0/nios2eds/bin/gnu/h-x86_64-mingw32/bin/../lib/gcc/nios2-elf/4.9.1/../../../../../H-x86_64-mingw32/nios2-elf/lib\libc.a(lib_a-strlen.o)
 .data          0x000000000203ccb8        0x0 c:/altera/15.0/nios2eds/bin/gnu/h-x86_64-mingw32/bin/../lib/gcc/nios2-elf/4.9.1/../../../../../H-x86_64-mingw32/nios2-elf/lib\libc.a(lib_a-vfprintf.o)
 .data          0x000000000203ccb8        0x0 c:/altera/15.0/nios2eds/bin/gnu/h-x86_64-mingw32/bin/../lib/gcc/nios2-elf/4.9.1/../../../../../H-x86_64-mingw32/nios2-elf/lib\libc.a(lib_a-wsetup.o)
 .data          0x000000000203ccb8        0x0 c:/altera/15.0/nios2eds/bin/gnu/h-x86_64-mingw32/bin/../lib/gcc/nios2-elf/4.9.1/../../../../../H-x86_64-mingw32/nios2-elf/lib\libc.a(lib_a-dtoa.o)
 .data          0x000000000203ccb8        0x0 c:/altera/15.0/nios2eds/bin/gnu/h-x86_64-mingw32/bin/../lib/gcc/nios2-elf/4.9.1/../../../../../H-x86_64-mingw32/nios2-elf/lib\libc.a(lib_a-fflush.o)
 .data          0x000000000203ccb8        0x0 c:/altera/15.0/nios2eds/bin/gnu/h-x86_64-mingw32/bin/../lib/gcc/nios2-elf/4.9.1/../../../../../H-x86_64-mingw32/nios2-elf/lib\libc.a(lib_a-findfp.o)
 .data          0x000000000203ccb8        0x0 c:/altera/15.0/nios2eds/bin/gnu/h-x86_64-mingw32/bin/../lib/gcc/nios2-elf/4.9.1/../../../../../H-x86_64-mingw32/nios2-elf/lib\libc.a(lib_a-freer.o)
 .data          0x000000000203ccb8        0x0 c:/altera/15.0/nios2eds/bin/gnu/h-x86_64-mingw32/bin/../lib/gcc/nios2-elf/4.9.1/../../../../../H-x86_64-mingw32/nios2-elf/lib\libc.a(lib_a-fvwrite.o)
 .data          0x000000000203ccb8        0x0 c:/altera/15.0/nios2eds/bin/gnu/h-x86_64-mingw32/bin/../lib/gcc/nios2-elf/4.9.1/../../../../../H-x86_64-mingw32/nios2-elf/lib\libc.a(lib_a-fwalk.o)
 .data          0x000000000203ccb8        0x0 c:/altera/15.0/nios2eds/bin/gnu/h-x86_64-mingw32/bin/../lib/gcc/nios2-elf/4.9.1/../../../../../H-x86_64-mingw32/nios2-elf/lib\libc.a(lib_a-int_errno.o)
 .data          0x000000000203ccb8       0x78 c:/altera/15.0/nios2eds/bin/gnu/h-x86_64-mingw32/bin/../lib/gcc/nios2-elf/4.9.1/../../../../../H-x86_64-mingw32/nios2-elf/lib\libc.a(lib_a-locale.o)
 .data          0x000000000203cd30        0x0 c:/altera/15.0/nios2eds/bin/gnu/h-x86_64-mingw32/bin/../lib/gcc/nios2-elf/4.9.1/../../../../../H-x86_64-mingw32/nios2-elf/lib\libc.a(lib_a-makebuf.o)
 .data          0x000000000203cd30        0x0 c:/altera/15.0/nios2eds/bin/gnu/h-x86_64-mingw32/bin/../lib/gcc/nios2-elf/4.9.1/../../../../../H-x86_64-mingw32/nios2-elf/lib\libc.a(lib_a-memchr.o)
 .data          0x000000000203cd30        0x0 c:/altera/15.0/nios2eds/bin/gnu/h-x86_64-mingw32/bin/../lib/gcc/nios2-elf/4.9.1/../../../../../H-x86_64-mingw32/nios2-elf/lib\libc.a(lib_a-memmove.o)
 .data          0x000000000203cd30        0x0 c:/altera/15.0/nios2eds/bin/gnu/h-x86_64-mingw32/bin/../lib/gcc/nios2-elf/4.9.1/../../../../../H-x86_64-mingw32/nios2-elf/lib\libc.a(lib_a-mprec.o)
 .data          0x000000000203cd30        0x0 c:/altera/15.0/nios2eds/bin/gnu/h-x86_64-mingw32/bin/../lib/gcc/nios2-elf/4.9.1/../../../../../H-x86_64-mingw32/nios2-elf/lib\libc.a(lib_a-reallocr.o)
 .data          0x000000000203cd30        0x0 c:/altera/15.0/nios2eds/bin/gnu/h-x86_64-mingw32/bin/../lib/gcc/nios2-elf/4.9.1/../../../../../H-x86_64-mingw32/nios2-elf/lib\libc.a(lib_a-stdio.o)
 .data          0x000000000203cd30        0x0 c:/altera/15.0/nios2eds/bin/gnu/h-x86_64-mingw32/bin/../lib/gcc/nios2-elf/4.9.1/../../../../../H-x86_64-mingw32/nios2-elf/lib\libc.a(lib_a-strcmp.o)
 .data          0x000000000203cd30        0x0 c:/altera/15.0/nios2eds/bin/gnu/h-x86_64-mingw32/bin/../lib/gcc/nios2-elf/4.9.1/../../../../../H-x86_64-mingw32/nios2-elf/lib\libc.a(lib_a-vfiprintf.o)
 .data          0x000000000203cd30        0x0 c:/altera/15.0/nios2eds/bin/gnu/h-x86_64-mingw32/bin/../lib/gcc/nios2-elf/4.9.1/../../../../../H-x86_64-mingw32/nios2-elf/lib\libc.a(lib_a-writer.o)
 .data          0x000000000203cd30        0x0 c:/altera/15.0/nios2eds/bin/gnu/h-x86_64-mingw32/bin/../lib/gcc/nios2-elf/4.9.1/../../../../../H-x86_64-mingw32/nios2-elf/lib\libc.a(closer.o)
 .data          0x000000000203cd30        0x0 c:/altera/15.0/nios2eds/bin/gnu/h-x86_64-mingw32/bin/../lib/gcc/nios2-elf/4.9.1/../../../../../H-x86_64-mingw32/nios2-elf/lib\libc.a(lib_a-callocr.o)
 .data          0x000000000203cd30        0x0 c:/altera/15.0/nios2eds/bin/gnu/h-x86_64-mingw32/bin/../lib/gcc/nios2-elf/4.9.1/../../../../../H-x86_64-mingw32/nios2-elf/lib\libc.a(lib_a-fclose.o)
 .data          0x000000000203cd30        0x0 c:/altera/15.0/nios2eds/bin/gnu/h-x86_64-mingw32/bin/../lib/gcc/nios2-elf/4.9.1/../../../../../H-x86_64-mingw32/nios2-elf/lib\libc.a(lib_a-fputwc.o)
 .data          0x000000000203cd30        0x0 c:/altera/15.0/nios2eds/bin/gnu/h-x86_64-mingw32/bin/../lib/gcc/nios2-elf/4.9.1/../../../../../H-x86_64-mingw32/nios2-elf/lib\libc.a(lib_a-fstatr.o)
 .data          0x000000000203cd30        0x0 c:/altera/15.0/nios2eds/bin/gnu/h-x86_64-mingw32/bin/../lib/gcc/nios2-elf/4.9.1/../../../../../H-x86_64-mingw32/nios2-elf/lib\libc.a(lib_a-isattyr.o)
 .data          0x000000000203cd30        0x0 c:/altera/15.0/nios2eds/bin/gnu/h-x86_64-mingw32/bin/../lib/gcc/nios2-elf/4.9.1/../../../../../H-x86_64-mingw32/nios2-elf/lib\libc.a(lib_a-lseekr.o)
 .data          0x000000000203cd30        0x0 c:/altera/15.0/nios2eds/bin/gnu/h-x86_64-mingw32/bin/../lib/gcc/nios2-elf/4.9.1/../../../../../H-x86_64-mingw32/nios2-elf/lib\libc.a(lib_a-readr.o)
 .data          0x000000000203cd30        0x0 c:/altera/15.0/nios2eds/bin/gnu/h-x86_64-mingw32/bin/../lib/gcc/nios2-elf/4.9.1/../../../../../H-x86_64-mingw32/nios2-elf/lib\libc.a(lib_a-wbuf.o)
 .data          0x000000000203cd30        0x0 c:/altera/15.0/nios2eds/bin/gnu/h-x86_64-mingw32/bin/../lib/gcc/nios2-elf/4.9.1/../../../../../H-x86_64-mingw32/nios2-elf/lib\libc.a(lib_a-wcrtomb.o)
 .data          0x000000000203cd30        0x0 c:/altera/15.0/nios2eds/bin/gnu/h-x86_64-mingw32/bin/../lib/gcc/nios2-elf/4.9.1/../../../../../H-x86_64-mingw32/nios2-elf/lib\libc.a(lib_a-wctomb_r.o)
 .data          0x000000000203cd30        0x0 c:/altera/15.0/nios2eds/bin/gnu/h-x86_64-mingw32/bin/../lib/gcc/nios2-elf/4.9.1\libgcc.a(_udivdi3.o)
 .data          0x000000000203cd30        0x0 c:/altera/15.0/nios2eds/bin/gnu/h-x86_64-mingw32/bin/../lib/gcc/nios2-elf/4.9.1\libgcc.a(_umoddi3.o)
 .data          0x000000000203cd30        0x0 c:/altera/15.0/nios2eds/bin/gnu/h-x86_64-mingw32/bin/../lib/gcc/nios2-elf/4.9.1\libgcc.a(eqdf2.o)
 .data          0x000000000203cd30        0x0 c:/altera/15.0/nios2eds/bin/gnu/h-x86_64-mingw32/bin/../lib/gcc/nios2-elf/4.9.1\libgcc.a(gedf2.o)
 .data          0x000000000203cd30        0x0 c:/altera/15.0/nios2eds/bin/gnu/h-x86_64-mingw32/bin/../lib/gcc/nios2-elf/4.9.1\libgcc.a(floatunsidf.o)
 .data          0x000000000203cd30        0x0 ../LT24_final_sw_bsp/\libucosii_bsp.a(alt_alarm_start.o)
 .data          0x000000000203cd30        0x0 ../LT24_final_sw_bsp/\libucosii_bsp.a(alt_close.o)
 .data          0x000000000203cd30      0x1a8 ../LT24_final_sw_bsp/\libucosii_bsp.a(alt_dev.o)
                0x000000000203cd30                alt_dev_null
                0x000000000203cd58                alt_fd_list
 .data          0x000000000203ced8        0x0 ../LT24_final_sw_bsp/\libucosii_bsp.a(alt_errno.o)
 .data          0x000000000203ced8        0x0 ../LT24_final_sw_bsp/\libucosii_bsp.a(alt_fstat.o)
 .data          0x000000000203ced8        0x0 ../LT24_final_sw_bsp/\libucosii_bsp.a(alt_iic.o)
 .data          0x000000000203ced8        0x0 ../LT24_final_sw_bsp/\libucosii_bsp.a(alt_iic_isr_register.o)
 .data          0x000000000203ced8        0x0 ../LT24_final_sw_bsp/\libucosii_bsp.a(alt_irq_entry.o)
 .data          0x000000000203ced8        0x0 ../LT24_final_sw_bsp/\libucosii_bsp.a(alt_irq_handler.o)
 .data          0x000000000203ced8        0x0 ../LT24_final_sw_bsp/\libucosii_bsp.a(alt_irq_vars.o)
 .data          0x000000000203ced8        0x0 ../LT24_final_sw_bsp/\libucosii_bsp.a(alt_isatty.o)
 .data          0x000000000203ced8        0x0 ../LT24_final_sw_bsp/\libucosii_bsp.a(alt_load.o)
 .data          0x000000000203ced8        0x0 ../LT24_final_sw_bsp/\libucosii_bsp.a(alt_lseek.o)
 .data          0x000000000203ced8        0x0 ../LT24_final_sw_bsp/\libucosii_bsp.a(alt_main.o)
 .data          0x000000000203ced8        0x0 ../LT24_final_sw_bsp/\libucosii_bsp.a(alt_read.o)
 .data          0x000000000203ced8        0x0 ../LT24_final_sw_bsp/\libucosii_bsp.a(alt_release_fd.o)
 .data          0x000000000203ced8        0x0 ../LT24_final_sw_bsp/\libucosii_bsp.a(alt_sbrk.o)
 .data          0x000000000203ced8        0x0 ../LT24_final_sw_bsp/\libucosii_bsp.a(alt_tick.o)
 .data          0x000000000203ced8        0x0 ../LT24_final_sw_bsp/\libucosii_bsp.a(alt_usleep.o)
 .data          0x000000000203ced8        0x0 ../LT24_final_sw_bsp/\libucosii_bsp.a(alt_write.o)
 .data          0x000000000203ced8        0x0 ../LT24_final_sw_bsp/\libucosii_bsp.a(alt_env_lock.o)
 .data          0x000000000203ced8        0x0 ../LT24_final_sw_bsp/\libucosii_bsp.a(alt_malloc_lock.o)
 .data          0x000000000203ced8        0x0 ../LT24_final_sw_bsp/\libucosii_bsp.a(os_core.o)
 .data          0x000000000203ced8        0x0 ../LT24_final_sw_bsp/\libucosii_bsp.a(os_dbg.o)
 .data          0x000000000203ced8        0x0 ../LT24_final_sw_bsp/\libucosii_bsp.a(os_flag.o)
 .data          0x000000000203ced8        0x0 ../LT24_final_sw_bsp/\libucosii_bsp.a(os_mbox.o)
 .data          0x000000000203ced8        0x0 ../LT24_final_sw_bsp/\libucosii_bsp.a(os_mem.o)
 .data          0x000000000203ced8        0x0 ../LT24_final_sw_bsp/\libucosii_bsp.a(os_mutex.o)
 .data          0x000000000203ced8        0x0 ../LT24_final_sw_bsp/\libucosii_bsp.a(os_q.o)
 .data          0x000000000203ced8        0x0 ../LT24_final_sw_bsp/\libucosii_bsp.a(os_sem.o)
 .data          0x000000000203ced8        0x0 ../LT24_final_sw_bsp/\libucosii_bsp.a(os_task.o)
 .data          0x000000000203ced8        0x0 ../LT24_final_sw_bsp/\libucosii_bsp.a(os_time.o)
 .data          0x000000000203ced8     0x106c ../LT24_final_sw_bsp/\libucosii_bsp.a(alt_sys_init.o)
 .data          0x000000000203df44        0x0 ../LT24_final_sw_bsp/\libucosii_bsp.a(altera_avalon_jtag_uart_fd.o)
 .data          0x000000000203df44        0x0 ../LT24_final_sw_bsp/\libucosii_bsp.a(altera_avalon_jtag_uart_init.o)
 .data          0x000000000203df44        0x0 ../LT24_final_sw_bsp/\libucosii_bsp.a(altera_avalon_jtag_uart_ioctl.o)
 .data          0x000000000203df44        0x0 ../LT24_final_sw_bsp/\libucosii_bsp.a(altera_avalon_jtag_uart_read.o)
 .data          0x000000000203df44        0x0 ../LT24_final_sw_bsp/\libucosii_bsp.a(altera_avalon_jtag_uart_write.o)
 .data          0x000000000203df44        0x0 ../LT24_final_sw_bsp/\libucosii_bsp.a(altera_avalon_spi.o)
 .data          0x000000000203df44        0x0 ../LT24_final_sw_bsp/\libucosii_bsp.a(altera_avalon_timer_sc.o)
 .data          0x000000000203df44        0x0 ../LT24_final_sw_bsp/\libucosii_bsp.a(alt_busy_sleep.o)
 .data          0x000000000203df44        0x0 ../LT24_final_sw_bsp/\libucosii_bsp.a(alt_dcache_flush_all.o)
 .data          0x000000000203df44        0x0 ../LT24_final_sw_bsp/\libucosii_bsp.a(alt_dev_llist_insert.o)
 .data          0x000000000203df44        0x0 ../LT24_final_sw_bsp/\libucosii_bsp.a(alt_do_ctors.o)
 .data          0x000000000203df44        0x0 ../LT24_final_sw_bsp/\libucosii_bsp.a(alt_do_dtors.o)
 .data          0x000000000203df44        0x0 ../LT24_final_sw_bsp/\libucosii_bsp.a(alt_exception_entry.o)
 .data          0x000000000203df44        0x0 ../LT24_final_sw_bsp/\libucosii_bsp.a(alt_icache_flush_all.o)
 .data          0x000000000203df44        0x0 ../LT24_final_sw_bsp/\libucosii_bsp.a(alt_io_redirect.o)
 .data          0x000000000203df44        0x0 ../LT24_final_sw_bsp/\libucosii_bsp.a(alt_open.o)
 .data          0x000000000203df44        0x0 ../LT24_final_sw_bsp/\libucosii_bsp.a(altera_nios2_qsys_irq.o)
 .data          0x000000000203df44        0x0 ../LT24_final_sw_bsp/\libucosii_bsp.a(os_cpu_a.o)
 .data          0x000000000203df44        0x0 ../LT24_final_sw_bsp/\libucosii_bsp.a(os_cpu_c.o)
 .data          0x000000000203df44        0x0 ../LT24_final_sw_bsp/\libucosii_bsp.a(alt_find_dev.o)
 .data          0x000000000203df44        0x0 ../LT24_final_sw_bsp/\libucosii_bsp.a(alt_find_file.o)
 .data          0x000000000203df44        0x0 ../LT24_final_sw_bsp/\libucosii_bsp.a(alt_get_fd.o)
 .data          0x000000000203df44        0x0 ../LT24_final_sw_bsp/\libucosii_bsp.a(alt_icache_flush.o)
 .data          0x000000000203df44        0x0 c:/altera/15.0/nios2eds/bin/gnu/h-x86_64-mingw32/bin/../lib/gcc/nios2-elf/4.9.1/../../../../../H-x86_64-mingw32/nios2-elf/lib\libc.a(lib_a-atexit.o)
 .data          0x000000000203df44        0x0 c:/altera/15.0/nios2eds/bin/gnu/h-x86_64-mingw32/bin/../lib/gcc/nios2-elf/4.9.1/../../../../../H-x86_64-mingw32/nios2-elf/lib\libc.a(lib_a-exit.o)
 .data          0x000000000203df44        0x0 c:/altera/15.0/nios2eds/bin/gnu/h-x86_64-mingw32/bin/../lib/gcc/nios2-elf/4.9.1/../../../../../H-x86_64-mingw32/nios2-elf/lib\libc.a(lib_a-memcmp.o)
 .data          0x000000000203df44        0x0 c:/altera/15.0/nios2eds/bin/gnu/h-x86_64-mingw32/bin/../lib/gcc/nios2-elf/4.9.1/../../../../../H-x86_64-mingw32/nios2-elf/lib\libc.a(lib_a-__atexit.o)
 .data          0x000000000203df44        0x0 c:/altera/15.0/nios2eds/bin/gnu/h-x86_64-mingw32/bin/../lib/gcc/nios2-elf/4.9.1/../../../../../H-x86_64-mingw32/nios2-elf/lib\libc.a(lib_a-__call_atexit.o)
 .data          0x000000000203df44        0x0 ../LT24_final_sw_bsp/\libucosii_bsp.a(alt_exit.o)
                0x0000000002045f44                _gp = ABSOLUTE ((. + 0x8000))
                0x0000000002045f44                PROVIDE (gp, _gp)
 *(.rwdata .rwdata.*)
 *(.sdata .sdata.* .gnu.linkonce.s.*)
 .sdata         0x000000000203df44        0x4 obj/default/demo/gui.o
 .sdata         0x000000000203df48       0x1c obj/default/graphic_lib/simple_graphics.o
                0x000000000203df48                UA_xc
                0x000000000203df4c                UA_yc
                0x000000000203df50                UA_height
                0x000000000203df54                UA_width
                0x000000000203df58                UA_Awidth
                0x000000000203df5c                UA_peak
                0x000000000203df60                cour10_font
 .sdata         0x000000000203df64        0x4 c:/altera/15.0/nios2eds/bin/gnu/h-x86_64-mingw32/bin/../lib/gcc/nios2-elf/4.9.1/../../../../../H-x86_64-mingw32/nios2-elf/lib\libm.a(lib_a-s_lib_ver.o)
                0x000000000203df64                __fdlib_version
 .sdata         0x000000000203df68        0x8 c:/altera/15.0/nios2eds/bin/gnu/h-x86_64-mingw32/bin/../lib/gcc/nios2-elf/4.9.1/../../../../../H-x86_64-mingw32/nios2-elf/lib\libc.a(lib_a-impure.o)
                0x000000000203df68                _global_impure_ptr
                0x000000000203df6c                _impure_ptr
 .sdata         0x000000000203df70        0x8 c:/altera/15.0/nios2eds/bin/gnu/h-x86_64-mingw32/bin/../lib/gcc/nios2-elf/4.9.1/../../../../../H-x86_64-mingw32/nios2-elf/lib\libc.a(lib_a-mallocr.o)
                0x000000000203df70                __malloc_sbrk_base
                0x000000000203df74                __malloc_trim_threshold
 .sdata         0x000000000203df78        0x4 c:/altera/15.0/nios2eds/bin/gnu/h-x86_64-mingw32/bin/../lib/gcc/nios2-elf/4.9.1/../../../../../H-x86_64-mingw32/nios2-elf/lib\libc.a(lib_a-locale.o)
                0x000000000203df78                __mb_cur_max
 .sdata         0x000000000203df7c        0x4 c:/altera/15.0/nios2eds/bin/gnu/h-x86_64-mingw32/bin/../lib/gcc/nios2-elf/4.9.1/../../../../../H-x86_64-mingw32/nios2-elf/lib\libc.a(lib_a-wctomb_r.o)
                0x000000000203df7c                __wctomb
 .sdata         0x000000000203df80       0x14 ../LT24_final_sw_bsp/\libucosii_bsp.a(alt_dev.o)
                0x000000000203df80                alt_fs_list
                0x000000000203df88                alt_dev_list
                0x000000000203df90                alt_max_fd
 .sdata         0x000000000203df94        0x4 ../LT24_final_sw_bsp/\libucosii_bsp.a(alt_errno.o)
                0x000000000203df94                alt_errno
 .sdata         0x000000000203df98        0x4 ../LT24_final_sw_bsp/\libucosii_bsp.a(alt_irq_vars.o)
                0x000000000203df98                alt_priority_mask
 .sdata         0x000000000203df9c        0x4 ../LT24_final_sw_bsp/\libucosii_bsp.a(alt_sbrk.o)
 .sdata         0x000000000203dfa0        0x8 ../LT24_final_sw_bsp/\libucosii_bsp.a(alt_tick.o)
                0x000000000203dfa0                alt_alarm_list
 .sdata         0x000000000203dfa8        0x4 ../LT24_final_sw_bsp/\libucosii_bsp.a(alt_env_lock.o)
 .sdata         0x000000000203dfac        0x4 ../LT24_final_sw_bsp/\libucosii_bsp.a(alt_malloc_lock.o)
 .sdata         0x000000000203dfb0       0x74 ../LT24_final_sw_bsp/\libucosii_bsp.a(os_dbg.o)
                0x000000000203dfb0                OSDebugEn
                0x000000000203dfb4                OSEndiannessTest
                0x000000000203dfb8                OSEventEn
                0x000000000203dfba                OSEventMax
                0x000000000203dfbc                OSEventNameSize
                0x000000000203dfbe                OSEventSize
                0x000000000203dfc0                OSEventTblSize
                0x000000000203dfc2                OSEventMultiEn
                0x000000000203dfc4                OSFlagEn
                0x000000000203dfc6                OSFlagGrpSize
                0x000000000203dfc8                OSFlagNodeSize
                0x000000000203dfca                OSFlagWidth
                0x000000000203dfcc                OSFlagMax
                0x000000000203dfce                OSFlagNameSize
                0x000000000203dfd0                OSLowestPrio
                0x000000000203dfd2                OSMboxEn
                0x000000000203dfd4                OSMemEn
                0x000000000203dfd6                OSMemMax
                0x000000000203dfd8                OSMemNameSize
                0x000000000203dfda                OSMemSize
                0x000000000203dfdc                OSMemTblSize
                0x000000000203dfde                OSMutexEn
                0x000000000203dfe0                OSPtrSize
                0x000000000203dfe2                OSQEn
                0x000000000203dfe4                OSQMax
                0x000000000203dfe6                OSQSize
                0x000000000203dfe8                OSRdyTblSize
                0x000000000203dfea                OSSemEn
                0x000000000203dfec                OSStkWidth
                0x000000000203dfee                OSTaskCreateEn
                0x000000000203dff0                OSTaskCreateExtEn
                0x000000000203dff2                OSTaskDelEn
                0x000000000203dff4                OSTaskIdleStkSize
                0x000000000203dff6                OSTaskProfileEn
                0x000000000203dff8                OSTaskMax
                0x000000000203dffa                OSTaskNameSize
                0x000000000203dffc                OSTaskStatEn
                0x000000000203dffe                OSTaskStatStkSize
                0x000000000203e000                OSTaskStatStkChkEn
                0x000000000203e002                OSTaskSwHookEn
                0x000000000203e004                OSTCBPrioTblMax
                0x000000000203e006                OSTCBSize
                0x000000000203e008                OSTicksPerSec
                0x000000000203e00a                OSTimeTickHookEn
                0x000000000203e00c                OSVersionNbr
                0x000000000203e00e                OSTmrEn
                0x000000000203e010                OSTmrCfgMax
                0x000000000203e012                OSTmrCfgNameSize
                0x000000000203e014                OSTmrCfgWheelSize
                0x000000000203e016                OSTmrCfgTicksPerSec
                0x000000000203e018                OSTmrSize
                0x000000000203e01a                OSTmrTblSize
                0x000000000203e01c                OSTmrWheelSize
                0x000000000203e01e                OSTmrWheelTblSize
                0x000000000203e020                OSDataSize
 *(.sdata2 .sdata2.* .gnu.linkonce.s2.*)
                0x000000000203e024                . = ALIGN (0x4)
                0x000000000203e024                _edata = ABSOLUTE (.)
                0x000000000203e024                PROVIDE (edata, ABSOLUTE (.))
                0x000000000203e024                PROVIDE (__ram_rwdata_end, ABSOLUTE (.))
                0x000000000203e024                PROVIDE (__flash_rwdata_start, LOADADDR (.rwdata))

.bss            0x0000000002041768     0xf474
                0x0000000002041768                __bss_start = ABSOLUTE (.)
                0x0000000002041768                PROVIDE (__sbss_start, ABSOLUTE (.))
                0x0000000002041768                PROVIDE (___sbss_start, ABSOLUTE (.))
 *(.dynsbss)
 *(.sbss .sbss.* .gnu.linkonce.sb.*)
 .sbss          0x0000000002041768        0x4 obj/default/demo/gui.o
 .sbss          0x000000000204176c       0x15 obj/default/main.o
                0x000000000204176c                pTouch
                0x0000000002041770                MU_2
                0x0000000002041774                CommMbox
                0x0000000002041778                S_Mutex
                0x000000000204177c                Idle
                0x0000000002041780                MU_1
 *fill*         0x0000000002041781        0x3 
 .sbss          0x0000000002041784        0xc c:/altera/15.0/nios2eds/bin/gnu/h-x86_64-mingw32/bin/../lib/gcc/nios2-elf/4.9.1/../../../../../H-x86_64-mingw32/nios2-elf/lib\libc.a(lib_a-mallocr.o)
                0x0000000002041784                __malloc_max_total_mem
                0x0000000002041788                __malloc_max_sbrked_mem
                0x000000000204178c                __malloc_top_pad
 .sbss          0x0000000002041790        0x4 c:/altera/15.0/nios2eds/bin/gnu/h-x86_64-mingw32/bin/../lib/gcc/nios2-elf/4.9.1/../../../../../H-x86_64-mingw32/nios2-elf/lib\libc.a(lib_a-int_errno.o)
                0x0000000002041790                errno
 .sbss          0x0000000002041794        0xc c:/altera/15.0/nios2eds/bin/gnu/h-x86_64-mingw32/bin/../lib/gcc/nios2-elf/4.9.1/../../../../../H-x86_64-mingw32/nios2-elf/lib\libc.a(lib_a-locale.o)
                0x0000000002041794                _PathLocale
                0x0000000002041798                __mlocale_changed
                0x000000000204179c                __nlocale_changed
 .sbss          0x00000000020417a0        0x4 ../LT24_final_sw_bsp/\libucosii_bsp.a(alt_dev.o)
                0x00000000020417a0                alt_fd_list_lock
 .sbss          0x00000000020417a4        0x4 ../LT24_final_sw_bsp/\libucosii_bsp.a(alt_irq_vars.o)
                0x00000000020417a4                alt_irq_active
 .sbss          0x00000000020417a8        0xc ../LT24_final_sw_bsp/\libucosii_bsp.a(alt_main.o)
                0x00000000020417a8                alt_argc
                0x00000000020417ac                alt_argv
                0x00000000020417b0                alt_envp
 .sbss          0x00000000020417b4        0x8 ../LT24_final_sw_bsp/\libucosii_bsp.a(alt_tick.o)
                0x00000000020417b4                _alt_tick_rate
                0x00000000020417b8                _alt_nticks
 .sbss          0x00000000020417bc        0x8 ../LT24_final_sw_bsp/\libucosii_bsp.a(alt_env_lock.o)
                0x00000000020417c0                alt_envsem
 .sbss          0x00000000020417c4        0x8 ../LT24_final_sw_bsp/\libucosii_bsp.a(alt_malloc_lock.o)
                0x00000000020417c8                alt_heapsem
 .sbss          0x00000000020417cc       0x50 ../LT24_final_sw_bsp/\libucosii_bsp.a(os_core.o)
                0x00000000020417cc                OSLockNesting
                0x00000000020417cd                OSRunning
                0x00000000020417d0                OSIdleCtr
                0x00000000020417d4                OSPrioHighRdy
                0x00000000020417d5                OSPrioCur
                0x00000000020417d8                OSTCBList
                0x00000000020417dc                OSTickStepState
                0x00000000020417e0                OSCtxSwCtr
                0x00000000020417e4                OSIdleCtrMax
                0x00000000020417e8                OSTCBFreeList
                0x00000000020417ec                OSCPUUsage
                0x00000000020417ed                OSTaskCtr
                0x00000000020417f0                OSMemFreeList
                0x00000000020417f4                OSTCBHighRdy
                0x00000000020417f8                OSQFreeList
                0x00000000020417fc                OSRdyGrp
                0x00000000020417fd                OSRdyTbl
                0x0000000002041800                OSEventFreeList
                0x0000000002041804                OSIntNesting
                0x0000000002041808                OSTCBCur
                0x000000000204180c                OSTime
                0x0000000002041810                OSFlagFreeList
                0x0000000002041814                OSStatRdy
                0x0000000002041818                OSIdleCtrRun
 *(.sbss2 .sbss2.* .gnu.linkonce.sb2.*)
 *(.scommon)
                0x000000000204181c                PROVIDE (__sbss_end, ABSOLUTE (.))
                0x000000000204181c                PROVIDE (___sbss_end, ABSOLUTE (.))
 *(.dynbss)
 *(.bss .bss.* .gnu.linkonce.b.*)
 .bss           0x000000000204181c        0x0 ../LT24_final_sw_bsp//obj/HAL/src/crt0.o
 .bss           0x000000000204181c        0x0 obj/default/demo/gui.o
 .bss           0x000000000204181c        0x0 obj/default/fonts/tahomabold_20.o
 .bss           0x000000000204181c        0x0 obj/default/fonts/tahomabold_32.o
 .bss           0x000000000204181c        0x0 obj/default/graphic_lib/ILI9341.o
 .bss           0x000000000204181c        0x0 obj/default/graphic_lib/geometry.o
 .bss           0x000000000204181c        0x0 obj/default/graphic_lib/simple_graphics.o
 .bss           0x000000000204181c        0x0 obj/default/graphic_lib/simple_text.o
 .bss           0x000000000204181c        0x0 obj/default/main.o
 .bss           0x000000000204181c        0x0 obj/default/terasic_lib/accelerometer_adxl345_spi.o
 .bss           0x000000000204181c        0x0 obj/default/terasic_lib/terasic_spi.o
 .bss           0x000000000204181c        0x0 obj/default/terasic_lib/touch_spi.o
 .bss           0x000000000204181c        0x0 c:/altera/15.0/nios2eds/bin/gnu/h-x86_64-mingw32/bin/../lib/gcc/nios2-elf/4.9.1/../../../../../H-x86_64-mingw32/nios2-elf/lib\libm.a(lib_a-w_sqrt.o)
 .bss           0x000000000204181c        0x0 c:/altera/15.0/nios2eds/bin/gnu/h-x86_64-mingw32/bin/../lib/gcc/nios2-elf/4.9.1/../../../../../H-x86_64-mingw32/nios2-elf/lib\libm.a(lib_a-e_sqrt.o)
 .bss           0x000000000204181c        0x0 c:/altera/15.0/nios2eds/bin/gnu/h-x86_64-mingw32/bin/../lib/gcc/nios2-elf/4.9.1/../../../../../H-x86_64-mingw32/nios2-elf/lib\libm.a(lib_a-s_fpclassify.o)
 .bss           0x000000000204181c        0x0 c:/altera/15.0/nios2eds/bin/gnu/h-x86_64-mingw32/bin/../lib/gcc/nios2-elf/4.9.1/../../../../../H-x86_64-mingw32/nios2-elf/lib\libm.a(lib_a-s_lib_ver.o)
 .bss           0x000000000204181c        0x0 c:/altera/15.0/nios2eds/bin/gnu/h-x86_64-mingw32/bin/../lib/gcc/nios2-elf/4.9.1/../../../../../H-x86_64-mingw32/nios2-elf/lib\libm.a(lib_a-s_matherr.o)
 .bss           0x000000000204181c        0x0 c:/altera/15.0/nios2eds/bin/gnu/h-x86_64-mingw32/bin/../lib/gcc/nios2-elf/4.9.1\libgcc.a(lib2-divmod.o)
 .bss           0x000000000204181c        0x0 c:/altera/15.0/nios2eds/bin/gnu/h-x86_64-mingw32/bin/../lib/gcc/nios2-elf/4.9.1\libgcc.a(adddf3.o)
 .bss           0x000000000204181c        0x0 c:/altera/15.0/nios2eds/bin/gnu/h-x86_64-mingw32/bin/../lib/gcc/nios2-elf/4.9.1\libgcc.a(divdf3.o)
 .bss           0x000000000204181c        0x0 c:/altera/15.0/nios2eds/bin/gnu/h-x86_64-mingw32/bin/../lib/gcc/nios2-elf/4.9.1\libgcc.a(ledf2.o)
 .bss           0x000000000204181c        0x0 c:/altera/15.0/nios2eds/bin/gnu/h-x86_64-mingw32/bin/../lib/gcc/nios2-elf/4.9.1\libgcc.a(muldf3.o)
 .bss           0x000000000204181c        0x0 c:/altera/15.0/nios2eds/bin/gnu/h-x86_64-mingw32/bin/../lib/gcc/nios2-elf/4.9.1\libgcc.a(subdf3.o)
 .bss           0x000000000204181c        0x0 c:/altera/15.0/nios2eds/bin/gnu/h-x86_64-mingw32/bin/../lib/gcc/nios2-elf/4.9.1\libgcc.a(fixdfsi.o)
 .bss           0x000000000204181c        0x0 c:/altera/15.0/nios2eds/bin/gnu/h-x86_64-mingw32/bin/../lib/gcc/nios2-elf/4.9.1\libgcc.a(floatsidf.o)
 .bss           0x000000000204181c        0x0 c:/altera/15.0/nios2eds/bin/gnu/h-x86_64-mingw32/bin/../lib/gcc/nios2-elf/4.9.1\libgcc.a(_clzsi2.o)
 .bss           0x000000000204181c        0x0 c:/altera/15.0/nios2eds/bin/gnu/h-x86_64-mingw32/bin/../lib/gcc/nios2-elf/4.9.1\libgcc.a(_clz.o)
 .bss           0x000000000204181c        0x0 c:/altera/15.0/nios2eds/bin/gnu/h-x86_64-mingw32/bin/../lib/gcc/nios2-elf/4.9.1/../../../../../H-x86_64-mingw32/nios2-elf/lib\libc.a(lib_a-errno.o)
 .bss           0x000000000204181c        0x0 c:/altera/15.0/nios2eds/bin/gnu/h-x86_64-mingw32/bin/../lib/gcc/nios2-elf/4.9.1/../../../../../H-x86_64-mingw32/nios2-elf/lib\libc.a(lib_a-impure.o)
 .bss           0x000000000204181c        0x0 c:/altera/15.0/nios2eds/bin/gnu/h-x86_64-mingw32/bin/../lib/gcc/nios2-elf/4.9.1/../../../../../H-x86_64-mingw32/nios2-elf/lib\libc.a(lib_a-malloc.o)
 .bss           0x000000000204181c       0x28 c:/altera/15.0/nios2eds/bin/gnu/h-x86_64-mingw32/bin/../lib/gcc/nios2-elf/4.9.1/../../../../../H-x86_64-mingw32/nios2-elf/lib\libc.a(lib_a-mallocr.o)
                0x000000000204181c                __malloc_current_mallinfo
 .bss           0x0000000002041844        0x0 c:/altera/15.0/nios2eds/bin/gnu/h-x86_64-mingw32/bin/../lib/gcc/nios2-elf/4.9.1/../../../../../H-x86_64-mingw32/nios2-elf/lib\libc.a(lib_a-memcpy.o)
 .bss           0x0000000002041844        0x0 c:/altera/15.0/nios2eds/bin/gnu/h-x86_64-mingw32/bin/../lib/gcc/nios2-elf/4.9.1/../../../../../H-x86_64-mingw32/nios2-elf/lib\libc.a(lib_a-memset.o)
 .bss           0x0000000002041844        0x0 c:/altera/15.0/nios2eds/bin/gnu/h-x86_64-mingw32/bin/../lib/gcc/nios2-elf/4.9.1/../../../../../H-x86_64-mingw32/nios2-elf/lib\libc.a(lib_a-printf.o)
 .bss           0x0000000002041844        0x0 c:/altera/15.0/nios2eds/bin/gnu/h-x86_64-mingw32/bin/../lib/gcc/nios2-elf/4.9.1/../../../../../H-x86_64-mingw32/nios2-elf/lib\libc.a(lib_a-puts.o)
 .bss           0x0000000002041844        0x0 c:/altera/15.0/nios2eds/bin/gnu/h-x86_64-mingw32/bin/../lib/gcc/nios2-elf/4.9.1/../../../../../H-x86_64-mingw32/nios2-elf/lib\libc.a(lib_a-sbrkr.o)
 .bss           0x0000000002041844        0x0 c:/altera/15.0/nios2eds/bin/gnu/h-x86_64-mingw32/bin/../lib/gcc/nios2-elf/4.9.1/../../../../../H-x86_64-mingw32/nios2-elf/lib\libc.a(lib_a-strcpy.o)
 .bss           0x0000000002041844        0x0 c:/altera/15.0/nios2eds/bin/gnu/h-x86_64-mingw32/bin/../lib/gcc/nios2-elf/4.9.1/../../../../../H-x86_64-mingw32/nios2-elf/lib\libc.a(lib_a-strlen.o)
 .bss           0x0000000002041844        0x0 c:/altera/15.0/nios2eds/bin/gnu/h-x86_64-mingw32/bin/../lib/gcc/nios2-elf/4.9.1/../../../../../H-x86_64-mingw32/nios2-elf/lib\libc.a(lib_a-vfprintf.o)
 .bss           0x0000000002041844        0x0 c:/altera/15.0/nios2eds/bin/gnu/h-x86_64-mingw32/bin/../lib/gcc/nios2-elf/4.9.1/../../../../../H-x86_64-mingw32/nios2-elf/lib\libc.a(lib_a-wsetup.o)
 .bss           0x0000000002041844        0x0 c:/altera/15.0/nios2eds/bin/gnu/h-x86_64-mingw32/bin/../lib/gcc/nios2-elf/4.9.1/../../../../../H-x86_64-mingw32/nios2-elf/lib\libc.a(lib_a-dtoa.o)
 .bss           0x0000000002041844        0x0 c:/altera/15.0/nios2eds/bin/gnu/h-x86_64-mingw32/bin/../lib/gcc/nios2-elf/4.9.1/../../../../../H-x86_64-mingw32/nios2-elf/lib\libc.a(lib_a-fflush.o)
 .bss           0x0000000002041844        0x0 c:/altera/15.0/nios2eds/bin/gnu/h-x86_64-mingw32/bin/../lib/gcc/nios2-elf/4.9.1/../../../../../H-x86_64-mingw32/nios2-elf/lib\libc.a(lib_a-findfp.o)
 .bss           0x0000000002041844        0x0 c:/altera/15.0/nios2eds/bin/gnu/h-x86_64-mingw32/bin/../lib/gcc/nios2-elf/4.9.1/../../../../../H-x86_64-mingw32/nios2-elf/lib\libc.a(lib_a-freer.o)
 .bss           0x0000000002041844        0x0 c:/altera/15.0/nios2eds/bin/gnu/h-x86_64-mingw32/bin/../lib/gcc/nios2-elf/4.9.1/../../../../../H-x86_64-mingw32/nios2-elf/lib\libc.a(lib_a-fvwrite.o)
 .bss           0x0000000002041844        0x0 c:/altera/15.0/nios2eds/bin/gnu/h-x86_64-mingw32/bin/../lib/gcc/nios2-elf/4.9.1/../../../../../H-x86_64-mingw32/nios2-elf/lib\libc.a(lib_a-fwalk.o)
 .bss           0x0000000002041844        0x0 c:/altera/15.0/nios2eds/bin/gnu/h-x86_64-mingw32/bin/../lib/gcc/nios2-elf/4.9.1/../../../../../H-x86_64-mingw32/nios2-elf/lib\libc.a(lib_a-int_errno.o)
 .bss           0x0000000002041844        0x0 c:/altera/15.0/nios2eds/bin/gnu/h-x86_64-mingw32/bin/../lib/gcc/nios2-elf/4.9.1/../../../../../H-x86_64-mingw32/nios2-elf/lib\libc.a(lib_a-locale.o)
 .bss           0x0000000002041844        0x0 c:/altera/15.0/nios2eds/bin/gnu/h-x86_64-mingw32/bin/../lib/gcc/nios2-elf/4.9.1/../../../../../H-x86_64-mingw32/nios2-elf/lib\libc.a(lib_a-makebuf.o)
 .bss           0x0000000002041844        0x0 c:/altera/15.0/nios2eds/bin/gnu/h-x86_64-mingw32/bin/../lib/gcc/nios2-elf/4.9.1/../../../../../H-x86_64-mingw32/nios2-elf/lib\libc.a(lib_a-memchr.o)
 .bss           0x0000000002041844        0x0 c:/altera/15.0/nios2eds/bin/gnu/h-x86_64-mingw32/bin/../lib/gcc/nios2-elf/4.9.1/../../../../../H-x86_64-mingw32/nios2-elf/lib\libc.a(lib_a-memmove.o)
 .bss           0x0000000002041844        0x0 c:/altera/15.0/nios2eds/bin/gnu/h-x86_64-mingw32/bin/../lib/gcc/nios2-elf/4.9.1/../../../../../H-x86_64-mingw32/nios2-elf/lib\libc.a(lib_a-mprec.o)
 .bss           0x0000000002041844        0x0 c:/altera/15.0/nios2eds/bin/gnu/h-x86_64-mingw32/bin/../lib/gcc/nios2-elf/4.9.1/../../../../../H-x86_64-mingw32/nios2-elf/lib\libc.a(lib_a-reallocr.o)
 .bss           0x0000000002041844        0x0 c:/altera/15.0/nios2eds/bin/gnu/h-x86_64-mingw32/bin/../lib/gcc/nios2-elf/4.9.1/../../../../../H-x86_64-mingw32/nios2-elf/lib\libc.a(lib_a-stdio.o)
 .bss           0x0000000002041844        0x0 c:/altera/15.0/nios2eds/bin/gnu/h-x86_64-mingw32/bin/../lib/gcc/nios2-elf/4.9.1/../../../../../H-x86_64-mingw32/nios2-elf/lib\libc.a(lib_a-strcmp.o)
 .bss           0x0000000002041844        0x0 c:/altera/15.0/nios2eds/bin/gnu/h-x86_64-mingw32/bin/../lib/gcc/nios2-elf/4.9.1/../../../../../H-x86_64-mingw32/nios2-elf/lib\libc.a(lib_a-vfiprintf.o)
 .bss           0x0000000002041844        0x0 c:/altera/15.0/nios2eds/bin/gnu/h-x86_64-mingw32/bin/../lib/gcc/nios2-elf/4.9.1/../../../../../H-x86_64-mingw32/nios2-elf/lib\libc.a(lib_a-writer.o)
 .bss           0x0000000002041844        0x0 c:/altera/15.0/nios2eds/bin/gnu/h-x86_64-mingw32/bin/../lib/gcc/nios2-elf/4.9.1/../../../../../H-x86_64-mingw32/nios2-elf/lib\libc.a(closer.o)
 .bss           0x0000000002041844        0x0 c:/altera/15.0/nios2eds/bin/gnu/h-x86_64-mingw32/bin/../lib/gcc/nios2-elf/4.9.1/../../../../../H-x86_64-mingw32/nios2-elf/lib\libc.a(lib_a-callocr.o)
 .bss           0x0000000002041844        0x0 c:/altera/15.0/nios2eds/bin/gnu/h-x86_64-mingw32/bin/../lib/gcc/nios2-elf/4.9.1/../../../../../H-x86_64-mingw32/nios2-elf/lib\libc.a(lib_a-fclose.o)
 .bss           0x0000000002041844        0x0 c:/altera/15.0/nios2eds/bin/gnu/h-x86_64-mingw32/bin/../lib/gcc/nios2-elf/4.9.1/../../../../../H-x86_64-mingw32/nios2-elf/lib\libc.a(lib_a-fputwc.o)
 .bss           0x0000000002041844        0x0 c:/altera/15.0/nios2eds/bin/gnu/h-x86_64-mingw32/bin/../lib/gcc/nios2-elf/4.9.1/../../../../../H-x86_64-mingw32/nios2-elf/lib\libc.a(lib_a-fstatr.o)
 .bss           0x0000000002041844        0x0 c:/altera/15.0/nios2eds/bin/gnu/h-x86_64-mingw32/bin/../lib/gcc/nios2-elf/4.9.1/../../../../../H-x86_64-mingw32/nios2-elf/lib\libc.a(lib_a-isattyr.o)
 .bss           0x0000000002041844        0x0 c:/altera/15.0/nios2eds/bin/gnu/h-x86_64-mingw32/bin/../lib/gcc/nios2-elf/4.9.1/../../../../../H-x86_64-mingw32/nios2-elf/lib\libc.a(lib_a-lseekr.o)
 .bss           0x0000000002041844        0x0 c:/altera/15.0/nios2eds/bin/gnu/h-x86_64-mingw32/bin/../lib/gcc/nios2-elf/4.9.1/../../../../../H-x86_64-mingw32/nios2-elf/lib\libc.a(lib_a-readr.o)
 .bss           0x0000000002041844        0x0 c:/altera/15.0/nios2eds/bin/gnu/h-x86_64-mingw32/bin/../lib/gcc/nios2-elf/4.9.1/../../../../../H-x86_64-mingw32/nios2-elf/lib\libc.a(lib_a-wbuf.o)
 .bss           0x0000000002041844        0x0 c:/altera/15.0/nios2eds/bin/gnu/h-x86_64-mingw32/bin/../lib/gcc/nios2-elf/4.9.1/../../../../../H-x86_64-mingw32/nios2-elf/lib\libc.a(lib_a-wcrtomb.o)
 .bss           0x0000000002041844        0x0 c:/altera/15.0/nios2eds/bin/gnu/h-x86_64-mingw32/bin/../lib/gcc/nios2-elf/4.9.1/../../../../../H-x86_64-mingw32/nios2-elf/lib\libc.a(lib_a-wctomb_r.o)
 .bss           0x0000000002041844        0x0 c:/altera/15.0/nios2eds/bin/gnu/h-x86_64-mingw32/bin/../lib/gcc/nios2-elf/4.9.1\libgcc.a(_udivdi3.o)
 .bss           0x0000000002041844        0x0 c:/altera/15.0/nios2eds/bin/gnu/h-x86_64-mingw32/bin/../lib/gcc/nios2-elf/4.9.1\libgcc.a(_umoddi3.o)
 .bss           0x0000000002041844        0x0 c:/altera/15.0/nios2eds/bin/gnu/h-x86_64-mingw32/bin/../lib/gcc/nios2-elf/4.9.1\libgcc.a(eqdf2.o)
 .bss           0x0000000002041844        0x0 c:/altera/15.0/nios2eds/bin/gnu/h-x86_64-mingw32/bin/../lib/gcc/nios2-elf/4.9.1\libgcc.a(gedf2.o)
 .bss           0x0000000002041844        0x0 c:/altera/15.0/nios2eds/bin/gnu/h-x86_64-mingw32/bin/../lib/gcc/nios2-elf/4.9.1\libgcc.a(floatunsidf.o)
 .bss           0x0000000002041844        0x0 ../LT24_final_sw_bsp/\libucosii_bsp.a(alt_alarm_start.o)
 .bss           0x0000000002041844        0x0 ../LT24_final_sw_bsp/\libucosii_bsp.a(alt_close.o)
 .bss           0x0000000002041844        0x0 ../LT24_final_sw_bsp/\libucosii_bsp.a(alt_dev.o)
 .bss           0x0000000002041844        0x0 ../LT24_final_sw_bsp/\libucosii_bsp.a(alt_errno.o)
 .bss           0x0000000002041844        0x0 ../LT24_final_sw_bsp/\libucosii_bsp.a(alt_fstat.o)
 .bss           0x0000000002041844        0x0 ../LT24_final_sw_bsp/\libucosii_bsp.a(alt_iic.o)
 .bss           0x0000000002041844        0x0 ../LT24_final_sw_bsp/\libucosii_bsp.a(alt_iic_isr_register.o)
 .bss           0x0000000002041844        0x0 ../LT24_final_sw_bsp/\libucosii_bsp.a(alt_irq_entry.o)
 .bss           0x0000000002041844        0x0 ../LT24_final_sw_bsp/\libucosii_bsp.a(alt_irq_handler.o)
 .bss           0x0000000002041844        0x0 ../LT24_final_sw_bsp/\libucosii_bsp.a(alt_irq_vars.o)
 .bss           0x0000000002041844        0x0 ../LT24_final_sw_bsp/\libucosii_bsp.a(alt_isatty.o)
 .bss           0x0000000002041844        0x0 ../LT24_final_sw_bsp/\libucosii_bsp.a(alt_load.o)
 .bss           0x0000000002041844        0x0 ../LT24_final_sw_bsp/\libucosii_bsp.a(alt_lseek.o)
 .bss           0x0000000002041844        0x0 ../LT24_final_sw_bsp/\libucosii_bsp.a(alt_main.o)
 .bss           0x0000000002041844        0x0 ../LT24_final_sw_bsp/\libucosii_bsp.a(alt_read.o)
 .bss           0x0000000002041844        0x0 ../LT24_final_sw_bsp/\libucosii_bsp.a(alt_release_fd.o)
 .bss           0x0000000002041844        0x0 ../LT24_final_sw_bsp/\libucosii_bsp.a(alt_sbrk.o)
 .bss           0x0000000002041844        0x0 ../LT24_final_sw_bsp/\libucosii_bsp.a(alt_tick.o)
 .bss           0x0000000002041844        0x0 ../LT24_final_sw_bsp/\libucosii_bsp.a(alt_usleep.o)
 .bss           0x0000000002041844        0x0 ../LT24_final_sw_bsp/\libucosii_bsp.a(alt_write.o)
 .bss           0x0000000002041844        0x0 ../LT24_final_sw_bsp/\libucosii_bsp.a(alt_env_lock.o)
 .bss           0x0000000002041844        0x0 ../LT24_final_sw_bsp/\libucosii_bsp.a(alt_malloc_lock.o)
 .bss           0x0000000002041844        0x0 ../LT24_final_sw_bsp/\libucosii_bsp.a(os_core.o)
 .bss           0x0000000002041844        0x0 ../LT24_final_sw_bsp/\libucosii_bsp.a(os_dbg.o)
 .bss           0x0000000002041844        0x0 ../LT24_final_sw_bsp/\libucosii_bsp.a(os_flag.o)
 .bss           0x0000000002041844        0x0 ../LT24_final_sw_bsp/\libucosii_bsp.a(os_mbox.o)
 .bss           0x0000000002041844        0x0 ../LT24_final_sw_bsp/\libucosii_bsp.a(os_mem.o)
 .bss           0x0000000002041844        0x0 ../LT24_final_sw_bsp/\libucosii_bsp.a(os_mutex.o)
 .bss           0x0000000002041844        0x0 ../LT24_final_sw_bsp/\libucosii_bsp.a(os_q.o)
 .bss           0x0000000002041844        0x0 ../LT24_final_sw_bsp/\libucosii_bsp.a(os_sem.o)
 .bss           0x0000000002041844        0x0 ../LT24_final_sw_bsp/\libucosii_bsp.a(os_task.o)
 .bss           0x0000000002041844        0x0 ../LT24_final_sw_bsp/\libucosii_bsp.a(os_time.o)
 .bss           0x0000000002041844        0x0 ../LT24_final_sw_bsp/\libucosii_bsp.a(alt_sys_init.o)
 .bss           0x0000000002041844        0x0 ../LT24_final_sw_bsp/\libucosii_bsp.a(altera_avalon_jtag_uart_fd.o)
 .bss           0x0000000002041844        0x0 ../LT24_final_sw_bsp/\libucosii_bsp.a(altera_avalon_jtag_uart_init.o)
 .bss           0x0000000002041844        0x0 ../LT24_final_sw_bsp/\libucosii_bsp.a(altera_avalon_jtag_uart_ioctl.o)
 .bss           0x0000000002041844        0x0 ../LT24_final_sw_bsp/\libucosii_bsp.a(altera_avalon_jtag_uart_read.o)
 .bss           0x0000000002041844        0x0 ../LT24_final_sw_bsp/\libucosii_bsp.a(altera_avalon_jtag_uart_write.o)
 .bss           0x0000000002041844        0x0 ../LT24_final_sw_bsp/\libucosii_bsp.a(altera_avalon_spi.o)
 .bss           0x0000000002041844        0x0 ../LT24_final_sw_bsp/\libucosii_bsp.a(altera_avalon_timer_sc.o)
 .bss           0x0000000002041844        0x0 ../LT24_final_sw_bsp/\libucosii_bsp.a(alt_busy_sleep.o)
 .bss           0x0000000002041844        0x0 ../LT24_final_sw_bsp/\libucosii_bsp.a(alt_dcache_flush_all.o)
 .bss           0x0000000002041844        0x0 ../LT24_final_sw_bsp/\libucosii_bsp.a(alt_dev_llist_insert.o)
 .bss           0x0000000002041844        0x0 ../LT24_final_sw_bsp/\libucosii_bsp.a(alt_do_ctors.o)
 .bss           0x0000000002041844        0x0 ../LT24_final_sw_bsp/\libucosii_bsp.a(alt_do_dtors.o)
 .bss           0x0000000002041844        0x0 ../LT24_final_sw_bsp/\libucosii_bsp.a(alt_exception_entry.o)
 .bss           0x0000000002041844        0x0 ../LT24_final_sw_bsp/\libucosii_bsp.a(alt_icache_flush_all.o)
 .bss           0x0000000002041844        0x0 ../LT24_final_sw_bsp/\libucosii_bsp.a(alt_io_redirect.o)
 .bss           0x0000000002041844        0x0 ../LT24_final_sw_bsp/\libucosii_bsp.a(alt_open.o)
 .bss           0x0000000002041844        0x0 ../LT24_final_sw_bsp/\libucosii_bsp.a(altera_nios2_qsys_irq.o)
 .bss           0x0000000002041844        0x0 ../LT24_final_sw_bsp/\libucosii_bsp.a(os_cpu_a.o)
 .bss           0x0000000002041844        0x0 ../LT24_final_sw_bsp/\libucosii_bsp.a(os_cpu_c.o)
 .bss           0x0000000002041844        0x0 ../LT24_final_sw_bsp/\libucosii_bsp.a(alt_find_dev.o)
 .bss           0x0000000002041844        0x0 ../LT24_final_sw_bsp/\libucosii_bsp.a(alt_find_file.o)
 .bss           0x0000000002041844        0x0 ../LT24_final_sw_bsp/\libucosii_bsp.a(alt_get_fd.o)
 .bss           0x0000000002041844        0x0 ../LT24_final_sw_bsp/\libucosii_bsp.a(alt_icache_flush.o)
 .bss           0x0000000002041844        0x0 c:/altera/15.0/nios2eds/bin/gnu/h-x86_64-mingw32/bin/../lib/gcc/nios2-elf/4.9.1/../../../../../H-x86_64-mingw32/nios2-elf/lib\libc.a(lib_a-atexit.o)
 .bss           0x0000000002041844        0x0 c:/altera/15.0/nios2eds/bin/gnu/h-x86_64-mingw32/bin/../lib/gcc/nios2-elf/4.9.1/../../../../../H-x86_64-mingw32/nios2-elf/lib\libc.a(lib_a-exit.o)
 .bss           0x0000000002041844        0x0 c:/altera/15.0/nios2eds/bin/gnu/h-x86_64-mingw32/bin/../lib/gcc/nios2-elf/4.9.1/../../../../../H-x86_64-mingw32/nios2-elf/lib\libc.a(lib_a-memcmp.o)
 .bss           0x0000000002041844        0x0 c:/altera/15.0/nios2eds/bin/gnu/h-x86_64-mingw32/bin/../lib/gcc/nios2-elf/4.9.1/../../../../../H-x86_64-mingw32/nios2-elf/lib\libc.a(lib_a-__atexit.o)
 .bss           0x0000000002041844        0x0 c:/altera/15.0/nios2eds/bin/gnu/h-x86_64-mingw32/bin/../lib/gcc/nios2-elf/4.9.1/../../../../../H-x86_64-mingw32/nios2-elf/lib\libc.a(lib_a-__call_atexit.o)
 .bss           0x0000000002041844        0x0 ../LT24_final_sw_bsp/\libucosii_bsp.a(alt_exit.o)
 *(COMMON)
 COMMON         0x0000000002041844     0xc074 obj/default/main.o
                0x0000000002041844                task1_stk
                0x0000000002045844                task2_stk
                0x0000000002049844                task3_stk
                0x000000000204d844                Display
                0x000000000204d858                DeskInfo
 COMMON         0x000000000204d8b8      0x100 ../LT24_final_sw_bsp/\libucosii_bsp.a(alt_irq_handler.o)
                0x000000000204d8b8                alt_irq
 COMMON         0x000000000204d9b8     0x3224 ../LT24_final_sw_bsp/\libucosii_bsp.a(os_core.o)
                0x000000000204d9b8                OSFlagTbl
                0x000000000204dd28                OSMemTbl
                0x000000000204e958                OSTaskStatStk
                0x000000000204f158                OSQTbl
                0x000000000204f338                OSTaskIdleStk
                0x000000000204fb38                OSEventTbl
                0x0000000002050678                OSTCBTbl
                0x0000000002050b88                OSTCBPrioTbl
                0x0000000002050bdc                . = ALIGN (0x4)
                0x0000000002050bdc                __bss_end = ABSOLUTE (.)

.SDRAM          0x0000000002050bdc        0x0
                0x0000000002050bdc                PROVIDE (_alt_partition_SDRAM_start, ABSOLUTE (.))
 *(.SDRAM .SDRAM. SDRAM.*)
                0x0000000002050bdc                . = ALIGN (0x4)
                0x0000000002050bdc                PROVIDE (_alt_partition_SDRAM_end, ABSOLUTE (.))
                0x0000000002050bdc                _end = ABSOLUTE (.)
                0x0000000002050bdc                end = ABSOLUTE (.)
                0x0000000002050bdc                __alt_stack_base = ABSOLUTE (.)
                0x0000000002050bdc                PROVIDE (_alt_partition_SDRAM_load_addr, LOADADDR (.SDRAM))

.background_mem
                0x0000000004000000        0x0 load address 0x0000000002050bdc
                0x0000000004000000                PROVIDE (_alt_partition_background_mem_start, ABSOLUTE (.))
 *(.background_mem .background_mem. background_mem.*)
                0x0000000004000000                . = ALIGN (0x4)
                0x0000000004000000                PROVIDE (_alt_partition_background_mem_end, ABSOLUTE (.))
                0x0000000002050bdc                PROVIDE (_alt_partition_background_mem_load_addr, LOADADDR (.background_mem))

.pic_mem        0x0000000004004000        0x0 load address 0x0000000002050bdc
                0x0000000004004000                PROVIDE (_alt_partition_pic_mem_start, ABSOLUTE (.))
 *(.pic_mem .pic_mem. pic_mem.*)
                0x0000000004004000                . = ALIGN (0x4)
                0x0000000004004000                PROVIDE (_alt_partition_pic_mem_end, ABSOLUTE (.))
                0x0000000002050bdc                PROVIDE (_alt_partition_pic_mem_load_addr, LOADADDR (.pic_mem))

.stab
 *(.stab)

.stabstr
 *(.stabstr)

.stab.excl
 *(.stab.excl)

.stab.exclstr
 *(.stab.exclstr)

.stab.index
 *(.stab.index)

.stab.indexstr
 *(.stab.indexstr)

.comment        0x0000000000000000       0x23
 *(.comment)
 .comment       0x0000000000000000       0x23 obj/default/demo/gui.o
                                         0x24 (size before relaxing)
 .comment       0x0000000000000000       0x24 obj/default/fonts/tahomabold_20.o
 .comment       0x0000000000000000       0x24 obj/default/fonts/tahomabold_32.o
 .comment       0x0000000000000000       0x24 obj/default/graphic_lib/ILI9341.o
 .comment       0x0000000000000000       0x24 obj/default/graphic_lib/geometry.o
 .comment       0x0000000000000000       0x24 obj/default/graphic_lib/simple_graphics.o
 .comment       0x0000000000000000       0x24 obj/default/graphic_lib/simple_text.o
 .comment       0x0000000000000000       0x24 obj/default/main.o
 .comment       0x0000000000000000       0x24 obj/default/terasic_lib/accelerometer_adxl345_spi.o
 .comment       0x0000000000000000       0x24 obj/default/terasic_lib/terasic_spi.o
 .comment       0x0000000000000000       0x24 obj/default/terasic_lib/touch_spi.o
 .comment       0x0000000000000000       0x24 c:/altera/15.0/nios2eds/bin/gnu/h-x86_64-mingw32/bin/../lib/gcc/nios2-elf/4.9.1/../../../../../H-x86_64-mingw32/nios2-elf/lib\libm.a(lib_a-w_sqrt.o)
 .comment       0x0000000000000000       0x24 c:/altera/15.0/nios2eds/bin/gnu/h-x86_64-mingw32/bin/../lib/gcc/nios2-elf/4.9.1/../../../../../H-x86_64-mingw32/nios2-elf/lib\libm.a(lib_a-e_sqrt.o)
 .comment       0x0000000000000000       0x24 c:/altera/15.0/nios2eds/bin/gnu/h-x86_64-mingw32/bin/../lib/gcc/nios2-elf/4.9.1/../../../../../H-x86_64-mingw32/nios2-elf/lib\libm.a(lib_a-s_fpclassify.o)
 .comment       0x0000000000000000       0x24 c:/altera/15.0/nios2eds/bin/gnu/h-x86_64-mingw32/bin/../lib/gcc/nios2-elf/4.9.1/../../../../../H-x86_64-mingw32/nios2-elf/lib\libm.a(lib_a-s_lib_ver.o)
 .comment       0x0000000000000000       0x24 c:/altera/15.0/nios2eds/bin/gnu/h-x86_64-mingw32/bin/../lib/gcc/nios2-elf/4.9.1/../../../../../H-x86_64-mingw32/nios2-elf/lib\libm.a(lib_a-s_matherr.o)
 .comment       0x0000000000000000       0x24 c:/altera/15.0/nios2eds/bin/gnu/h-x86_64-mingw32/bin/../lib/gcc/nios2-elf/4.9.1\libgcc.a(lib2-divmod.o)
 .comment       0x0000000000000000       0x24 c:/altera/15.0/nios2eds/bin/gnu/h-x86_64-mingw32/bin/../lib/gcc/nios2-elf/4.9.1\libgcc.a(adddf3.o)
 .comment       0x0000000000000000       0x24 c:/altera/15.0/nios2eds/bin/gnu/h-x86_64-mingw32/bin/../lib/gcc/nios2-elf/4.9.1\libgcc.a(divdf3.o)
 .comment       0x0000000000000000       0x24 c:/altera/15.0/nios2eds/bin/gnu/h-x86_64-mingw32/bin/../lib/gcc/nios2-elf/4.9.1\libgcc.a(ledf2.o)
 .comment       0x0000000000000000       0x24 c:/altera/15.0/nios2eds/bin/gnu/h-x86_64-mingw32/bin/../lib/gcc/nios2-elf/4.9.1\libgcc.a(muldf3.o)
 .comment       0x0000000000000000       0x24 c:/altera/15.0/nios2eds/bin/gnu/h-x86_64-mingw32/bin/../lib/gcc/nios2-elf/4.9.1\libgcc.a(subdf3.o)
 .comment       0x0000000000000000       0x24 c:/altera/15.0/nios2eds/bin/gnu/h-x86_64-mingw32/bin/../lib/gcc/nios2-elf/4.9.1\libgcc.a(fixdfsi.o)
 .comment       0x0000000000000000       0x24 c:/altera/15.0/nios2eds/bin/gnu/h-x86_64-mingw32/bin/../lib/gcc/nios2-elf/4.9.1\libgcc.a(floatsidf.o)
 .comment       0x0000000000000000       0x24 c:/altera/15.0/nios2eds/bin/gnu/h-x86_64-mingw32/bin/../lib/gcc/nios2-elf/4.9.1\libgcc.a(_clzsi2.o)
 .comment       0x0000000000000000       0x24 c:/altera/15.0/nios2eds/bin/gnu/h-x86_64-mingw32/bin/../lib/gcc/nios2-elf/4.9.1\libgcc.a(_clz.o)
 .comment       0x0000000000000000       0x24 c:/altera/15.0/nios2eds/bin/gnu/h-x86_64-mingw32/bin/../lib/gcc/nios2-elf/4.9.1/../../../../../H-x86_64-mingw32/nios2-elf/lib\libc.a(lib_a-errno.o)
 .comment       0x0000000000000000       0x24 c:/altera/15.0/nios2eds/bin/gnu/h-x86_64-mingw32/bin/../lib/gcc/nios2-elf/4.9.1/../../../../../H-x86_64-mingw32/nios2-elf/lib\libc.a(lib_a-impure.o)
 .comment       0x0000000000000000       0x24 c:/altera/15.0/nios2eds/bin/gnu/h-x86_64-mingw32/bin/../lib/gcc/nios2-elf/4.9.1/../../../../../H-x86_64-mingw32/nios2-elf/lib\libc.a(lib_a-malloc.o)
 .comment       0x0000000000000000       0x24 c:/altera/15.0/nios2eds/bin/gnu/h-x86_64-mingw32/bin/../lib/gcc/nios2-elf/4.9.1/../../../../../H-x86_64-mingw32/nios2-elf/lib\libc.a(lib_a-mallocr.o)
 .comment       0x0000000000000000       0x24 c:/altera/15.0/nios2eds/bin/gnu/h-x86_64-mingw32/bin/../lib/gcc/nios2-elf/4.9.1/../../../../../H-x86_64-mingw32/nios2-elf/lib\libc.a(lib_a-memcpy.o)
 .comment       0x0000000000000000       0x24 c:/altera/15.0/nios2eds/bin/gnu/h-x86_64-mingw32/bin/../lib/gcc/nios2-elf/4.9.1/../../../../../H-x86_64-mingw32/nios2-elf/lib\libc.a(lib_a-memset.o)
 .comment       0x0000000000000000       0x24 c:/altera/15.0/nios2eds/bin/gnu/h-x86_64-mingw32/bin/../lib/gcc/nios2-elf/4.9.1/../../../../../H-x86_64-mingw32/nios2-elf/lib\libc.a(lib_a-printf.o)
 .comment       0x0000000000000000       0x24 c:/altera/15.0/nios2eds/bin/gnu/h-x86_64-mingw32/bin/../lib/gcc/nios2-elf/4.9.1/../../../../../H-x86_64-mingw32/nios2-elf/lib\libc.a(lib_a-puts.o)
 .comment       0x0000000000000000       0x24 c:/altera/15.0/nios2eds/bin/gnu/h-x86_64-mingw32/bin/../lib/gcc/nios2-elf/4.9.1/../../../../../H-x86_64-mingw32/nios2-elf/lib\libc.a(lib_a-sbrkr.o)
 .comment       0x0000000000000000       0x24 c:/altera/15.0/nios2eds/bin/gnu/h-x86_64-mingw32/bin/../lib/gcc/nios2-elf/4.9.1/../../../../../H-x86_64-mingw32/nios2-elf/lib\libc.a(lib_a-strcpy.o)
 .comment       0x0000000000000000       0x24 c:/altera/15.0/nios2eds/bin/gnu/h-x86_64-mingw32/bin/../lib/gcc/nios2-elf/4.9.1/../../../../../H-x86_64-mingw32/nios2-elf/lib\libc.a(lib_a-strlen.o)
 .comment       0x0000000000000000       0x24 c:/altera/15.0/nios2eds/bin/gnu/h-x86_64-mingw32/bin/../lib/gcc/nios2-elf/4.9.1/../../../../../H-x86_64-mingw32/nios2-elf/lib\libc.a(lib_a-vfprintf.o)
 .comment       0x0000000000000000       0x24 c:/altera/15.0/nios2eds/bin/gnu/h-x86_64-mingw32/bin/../lib/gcc/nios2-elf/4.9.1/../../../../../H-x86_64-mingw32/nios2-elf/lib\libc.a(lib_a-wsetup.o)
 .comment       0x0000000000000000       0x24 c:/altera/15.0/nios2eds/bin/gnu/h-x86_64-mingw32/bin/../lib/gcc/nios2-elf/4.9.1/../../../../../H-x86_64-mingw32/nios2-elf/lib\libc.a(lib_a-dtoa.o)
 .comment       0x0000000000000000       0x24 c:/altera/15.0/nios2eds/bin/gnu/h-x86_64-mingw32/bin/../lib/gcc/nios2-elf/4.9.1/../../../../../H-x86_64-mingw32/nios2-elf/lib\libc.a(lib_a-fflush.o)
 .comment       0x0000000000000000       0x24 c:/altera/15.0/nios2eds/bin/gnu/h-x86_64-mingw32/bin/../lib/gcc/nios2-elf/4.9.1/../../../../../H-x86_64-mingw32/nios2-elf/lib\libc.a(lib_a-findfp.o)
 .comment       0x0000000000000000       0x24 c:/altera/15.0/nios2eds/bin/gnu/h-x86_64-mingw32/bin/../lib/gcc/nios2-elf/4.9.1/../../../../../H-x86_64-mingw32/nios2-elf/lib\libc.a(lib_a-freer.o)
 .comment       0x0000000000000000       0x24 c:/altera/15.0/nios2eds/bin/gnu/h-x86_64-mingw32/bin/../lib/gcc/nios2-elf/4.9.1/../../../../../H-x86_64-mingw32/nios2-elf/lib\libc.a(lib_a-fvwrite.o)
 .comment       0x0000000000000000       0x24 c:/altera/15.0/nios2eds/bin/gnu/h-x86_64-mingw32/bin/../lib/gcc/nios2-elf/4.9.1/../../../../../H-x86_64-mingw32/nios2-elf/lib\libc.a(lib_a-fwalk.o)
 .comment       0x0000000000000000       0x24 c:/altera/15.0/nios2eds/bin/gnu/h-x86_64-mingw32/bin/../lib/gcc/nios2-elf/4.9.1/../../../../../H-x86_64-mingw32/nios2-elf/lib\libc.a(lib_a-int_errno.o)
 .comment       0x0000000000000000       0x24 c:/altera/15.0/nios2eds/bin/gnu/h-x86_64-mingw32/bin/../lib/gcc/nios2-elf/4.9.1/../../../../../H-x86_64-mingw32/nios2-elf/lib\libc.a(lib_a-locale.o)
 .comment       0x0000000000000000       0x24 c:/altera/15.0/nios2eds/bin/gnu/h-x86_64-mingw32/bin/../lib/gcc/nios2-elf/4.9.1/../../../../../H-x86_64-mingw32/nios2-elf/lib\libc.a(lib_a-makebuf.o)
 .comment       0x0000000000000000       0x24 c:/altera/15.0/nios2eds/bin/gnu/h-x86_64-mingw32/bin/../lib/gcc/nios2-elf/4.9.1/../../../../../H-x86_64-mingw32/nios2-elf/lib\libc.a(lib_a-memchr.o)
 .comment       0x0000000000000000       0x24 c:/altera/15.0/nios2eds/bin/gnu/h-x86_64-mingw32/bin/../lib/gcc/nios2-elf/4.9.1/../../../../../H-x86_64-mingw32/nios2-elf/lib\libc.a(lib_a-memmove.o)
 .comment       0x0000000000000000       0x24 c:/altera/15.0/nios2eds/bin/gnu/h-x86_64-mingw32/bin/../lib/gcc/nios2-elf/4.9.1/../../../../../H-x86_64-mingw32/nios2-elf/lib\libc.a(lib_a-mprec.o)
 .comment       0x0000000000000000       0x24 c:/altera/15.0/nios2eds/bin/gnu/h-x86_64-mingw32/bin/../lib/gcc/nios2-elf/4.9.1/../../../../../H-x86_64-mingw32/nios2-elf/lib\libc.a(lib_a-reallocr.o)
 .comment       0x0000000000000000       0x24 c:/altera/15.0/nios2eds/bin/gnu/h-x86_64-mingw32/bin/../lib/gcc/nios2-elf/4.9.1/../../../../../H-x86_64-mingw32/nios2-elf/lib\libc.a(lib_a-stdio.o)
 .comment       0x0000000000000000       0x24 c:/altera/15.0/nios2eds/bin/gnu/h-x86_64-mingw32/bin/../lib/gcc/nios2-elf/4.9.1/../../../../../H-x86_64-mingw32/nios2-elf/lib\libc.a(lib_a-strcmp.o)
 .comment       0x0000000000000000       0x24 c:/altera/15.0/nios2eds/bin/gnu/h-x86_64-mingw32/bin/../lib/gcc/nios2-elf/4.9.1/../../../../../H-x86_64-mingw32/nios2-elf/lib\libc.a(lib_a-vfiprintf.o)
 .comment       0x0000000000000000       0x24 c:/altera/15.0/nios2eds/bin/gnu/h-x86_64-mingw32/bin/../lib/gcc/nios2-elf/4.9.1/../../../../../H-x86_64-mingw32/nios2-elf/lib\libc.a(lib_a-writer.o)
 .comment       0x0000000000000000       0x24 c:/altera/15.0/nios2eds/bin/gnu/h-x86_64-mingw32/bin/../lib/gcc/nios2-elf/4.9.1/../../../../../H-x86_64-mingw32/nios2-elf/lib\libc.a(closer.o)
 .comment       0x0000000000000000       0x24 c:/altera/15.0/nios2eds/bin/gnu/h-x86_64-mingw32/bin/../lib/gcc/nios2-elf/4.9.1/../../../../../H-x86_64-mingw32/nios2-elf/lib\libc.a(lib_a-callocr.o)
 .comment       0x0000000000000000       0x24 c:/altera/15.0/nios2eds/bin/gnu/h-x86_64-mingw32/bin/../lib/gcc/nios2-elf/4.9.1/../../../../../H-x86_64-mingw32/nios2-elf/lib\libc.a(lib_a-fclose.o)
 .comment       0x0000000000000000       0x24 c:/altera/15.0/nios2eds/bin/gnu/h-x86_64-mingw32/bin/../lib/gcc/nios2-elf/4.9.1/../../../../../H-x86_64-mingw32/nios2-elf/lib\libc.a(lib_a-fputwc.o)
 .comment       0x0000000000000000       0x24 c:/altera/15.0/nios2eds/bin/gnu/h-x86_64-mingw32/bin/../lib/gcc/nios2-elf/4.9.1/../../../../../H-x86_64-mingw32/nios2-elf/lib\libc.a(lib_a-fstatr.o)
 .comment       0x0000000000000000       0x24 c:/altera/15.0/nios2eds/bin/gnu/h-x86_64-mingw32/bin/../lib/gcc/nios2-elf/4.9.1/../../../../../H-x86_64-mingw32/nios2-elf/lib\libc.a(lib_a-isattyr.o)
 .comment       0x0000000000000000       0x24 c:/altera/15.0/nios2eds/bin/gnu/h-x86_64-mingw32/bin/../lib/gcc/nios2-elf/4.9.1/../../../../../H-x86_64-mingw32/nios2-elf/lib\libc.a(lib_a-lseekr.o)
 .comment       0x0000000000000000       0x24 c:/altera/15.0/nios2eds/bin/gnu/h-x86_64-mingw32/bin/../lib/gcc/nios2-elf/4.9.1/../../../../../H-x86_64-mingw32/nios2-elf/lib\libc.a(lib_a-readr.o)
 .comment       0x0000000000000000       0x24 c:/altera/15.0/nios2eds/bin/gnu/h-x86_64-mingw32/bin/../lib/gcc/nios2-elf/4.9.1/../../../../../H-x86_64-mingw32/nios2-elf/lib\libc.a(lib_a-wbuf.o)
 .comment       0x0000000000000000       0x24 c:/altera/15.0/nios2eds/bin/gnu/h-x86_64-mingw32/bin/../lib/gcc/nios2-elf/4.9.1/../../../../../H-x86_64-mingw32/nios2-elf/lib\libc.a(lib_a-wcrtomb.o)
 .comment       0x0000000000000000       0x24 c:/altera/15.0/nios2eds/bin/gnu/h-x86_64-mingw32/bin/../lib/gcc/nios2-elf/4.9.1/../../../../../H-x86_64-mingw32/nios2-elf/lib\libc.a(lib_a-wctomb_r.o)
 .comment       0x0000000000000000       0x24 c:/altera/15.0/nios2eds/bin/gnu/h-x86_64-mingw32/bin/../lib/gcc/nios2-elf/4.9.1\libgcc.a(_udivdi3.o)
 .comment       0x0000000000000000       0x24 c:/altera/15.0/nios2eds/bin/gnu/h-x86_64-mingw32/bin/../lib/gcc/nios2-elf/4.9.1\libgcc.a(_umoddi3.o)
 .comment       0x0000000000000000       0x24 c:/altera/15.0/nios2eds/bin/gnu/h-x86_64-mingw32/bin/../lib/gcc/nios2-elf/4.9.1\libgcc.a(eqdf2.o)
 .comment       0x0000000000000000       0x24 c:/altera/15.0/nios2eds/bin/gnu/h-x86_64-mingw32/bin/../lib/gcc/nios2-elf/4.9.1\libgcc.a(gedf2.o)
 .comment       0x0000000000000000       0x24 c:/altera/15.0/nios2eds/bin/gnu/h-x86_64-mingw32/bin/../lib/gcc/nios2-elf/4.9.1\libgcc.a(floatunsidf.o)
 .comment       0x0000000000000000       0x24 ../LT24_final_sw_bsp/\libucosii_bsp.a(alt_alarm_start.o)
 .comment       0x0000000000000000       0x24 ../LT24_final_sw_bsp/\libucosii_bsp.a(alt_close.o)
 .comment       0x0000000000000000       0x24 ../LT24_final_sw_bsp/\libucosii_bsp.a(alt_dev.o)
 .comment       0x0000000000000000       0x24 ../LT24_final_sw_bsp/\libucosii_bsp.a(alt_errno.o)
 .comment       0x0000000000000000       0x24 ../LT24_final_sw_bsp/\libucosii_bsp.a(alt_fstat.o)
 .comment       0x0000000000000000       0x24 ../LT24_final_sw_bsp/\libucosii_bsp.a(alt_iic.o)
 .comment       0x0000000000000000       0x24 ../LT24_final_sw_bsp/\libucosii_bsp.a(alt_iic_isr_register.o)
 .comment       0x0000000000000000       0x24 ../LT24_final_sw_bsp/\libucosii_bsp.a(alt_irq_handler.o)
 .comment       0x0000000000000000       0x24 ../LT24_final_sw_bsp/\libucosii_bsp.a(alt_irq_vars.o)
 .comment       0x0000000000000000       0x24 ../LT24_final_sw_bsp/\libucosii_bsp.a(alt_isatty.o)
 .comment       0x0000000000000000       0x24 ../LT24_final_sw_bsp/\libucosii_bsp.a(alt_load.o)
 .comment       0x0000000000000000       0x24 ../LT24_final_sw_bsp/\libucosii_bsp.a(alt_lseek.o)
 .comment       0x0000000000000000       0x24 ../LT24_final_sw_bsp/\libucosii_bsp.a(alt_main.o)
 .comment       0x0000000000000000       0x24 ../LT24_final_sw_bsp/\libucosii_bsp.a(alt_read.o)
 .comment       0x0000000000000000       0x24 ../LT24_final_sw_bsp/\libucosii_bsp.a(alt_release_fd.o)
 .comment       0x0000000000000000       0x24 ../LT24_final_sw_bsp/\libucosii_bsp.a(alt_sbrk.o)
 .comment       0x0000000000000000       0x24 ../LT24_final_sw_bsp/\libucosii_bsp.a(alt_tick.o)
 .comment       0x0000000000000000       0x24 ../LT24_final_sw_bsp/\libucosii_bsp.a(alt_usleep.o)
 .comment       0x0000000000000000       0x24 ../LT24_final_sw_bsp/\libucosii_bsp.a(alt_write.o)
 .comment       0x0000000000000000       0x24 ../LT24_final_sw_bsp/\libucosii_bsp.a(alt_env_lock.o)
 .comment       0x0000000000000000       0x24 ../LT24_final_sw_bsp/\libucosii_bsp.a(alt_malloc_lock.o)
 .comment       0x0000000000000000       0x24 ../LT24_final_sw_bsp/\libucosii_bsp.a(os_core.o)
 .comment       0x0000000000000000       0x24 ../LT24_final_sw_bsp/\libucosii_bsp.a(os_dbg.o)
 .comment       0x0000000000000000       0x24 ../LT24_final_sw_bsp/\libucosii_bsp.a(os_flag.o)
 .comment       0x0000000000000000       0x24 ../LT24_final_sw_bsp/\libucosii_bsp.a(os_mbox.o)
 .comment       0x0000000000000000       0x24 ../LT24_final_sw_bsp/\libucosii_bsp.a(os_mem.o)
 .comment       0x0000000000000000       0x24 ../LT24_final_sw_bsp/\libucosii_bsp.a(os_mutex.o)
 .comment       0x0000000000000000       0x24 ../LT24_final_sw_bsp/\libucosii_bsp.a(os_q.o)
 .comment       0x0000000000000000       0x24 ../LT24_final_sw_bsp/\libucosii_bsp.a(os_sem.o)
 .comment       0x0000000000000000       0x24 ../LT24_final_sw_bsp/\libucosii_bsp.a(os_task.o)
 .comment       0x0000000000000000       0x24 ../LT24_final_sw_bsp/\libucosii_bsp.a(os_time.o)
 .comment       0x0000000000000000       0x24 ../LT24_final_sw_bsp/\libucosii_bsp.a(alt_sys_init.o)
 .comment       0x0000000000000000       0x24 ../LT24_final_sw_bsp/\libucosii_bsp.a(altera_avalon_jtag_uart_fd.o)
 .comment       0x0000000000000000       0x24 ../LT24_final_sw_bsp/\libucosii_bsp.a(altera_avalon_jtag_uart_init.o)
 .comment       0x0000000000000000       0x24 ../LT24_final_sw_bsp/\libucosii_bsp.a(altera_avalon_jtag_uart_ioctl.o)
 .comment       0x0000000000000000       0x24 ../LT24_final_sw_bsp/\libucosii_bsp.a(altera_avalon_jtag_uart_read.o)
 .comment       0x0000000000000000       0x24 ../LT24_final_sw_bsp/\libucosii_bsp.a(altera_avalon_jtag_uart_write.o)
 .comment       0x0000000000000000       0x24 ../LT24_final_sw_bsp/\libucosii_bsp.a(altera_avalon_spi.o)
 .comment       0x0000000000000000       0x24 ../LT24_final_sw_bsp/\libucosii_bsp.a(altera_avalon_timer_sc.o)
 .comment       0x0000000000000000       0x24 ../LT24_final_sw_bsp/\libucosii_bsp.a(alt_busy_sleep.o)
 .comment       0x0000000000000000       0x24 ../LT24_final_sw_bsp/\libucosii_bsp.a(alt_dcache_flush_all.o)
 .comment       0x0000000000000000       0x24 ../LT24_final_sw_bsp/\libucosii_bsp.a(alt_dev_llist_insert.o)
 .comment       0x0000000000000000       0x24 ../LT24_final_sw_bsp/\libucosii_bsp.a(alt_do_ctors.o)
 .comment       0x0000000000000000       0x24 ../LT24_final_sw_bsp/\libucosii_bsp.a(alt_do_dtors.o)
 .comment       0x0000000000000000       0x24 ../LT24_final_sw_bsp/\libucosii_bsp.a(alt_icache_flush_all.o)
 .comment       0x0000000000000000       0x24 ../LT24_final_sw_bsp/\libucosii_bsp.a(alt_io_redirect.o)
 .comment       0x0000000000000000       0x24 ../LT24_final_sw_bsp/\libucosii_bsp.a(alt_open.o)
 .comment       0x0000000000000000       0x24 ../LT24_final_sw_bsp/\libucosii_bsp.a(altera_nios2_qsys_irq.o)
 .comment       0x0000000000000000       0x24 ../LT24_final_sw_bsp/\libucosii_bsp.a(os_cpu_c.o)
 .comment       0x0000000000000000       0x24 ../LT24_final_sw_bsp/\libucosii_bsp.a(alt_find_dev.o)
 .comment       0x0000000000000000       0x24 ../LT24_final_sw_bsp/\libucosii_bsp.a(alt_find_file.o)
 .comment       0x0000000000000000       0x24 ../LT24_final_sw_bsp/\libucosii_bsp.a(alt_get_fd.o)
 .comment       0x0000000000000000       0x24 ../LT24_final_sw_bsp/\libucosii_bsp.a(alt_icache_flush.o)
 .comment       0x0000000000000000       0x24 c:/altera/15.0/nios2eds/bin/gnu/h-x86_64-mingw32/bin/../lib/gcc/nios2-elf/4.9.1/../../../../../H-x86_64-mingw32/nios2-elf/lib\libc.a(lib_a-atexit.o)
 .comment       0x0000000000000000       0x24 c:/altera/15.0/nios2eds/bin/gnu/h-x86_64-mingw32/bin/../lib/gcc/nios2-elf/4.9.1/../../../../../H-x86_64-mingw32/nios2-elf/lib\libc.a(lib_a-exit.o)
 .comment       0x0000000000000000       0x24 c:/altera/15.0/nios2eds/bin/gnu/h-x86_64-mingw32/bin/../lib/gcc/nios2-elf/4.9.1/../../../../../H-x86_64-mingw32/nios2-elf/lib\libc.a(lib_a-memcmp.o)
 .comment       0x0000000000000000       0x24 c:/altera/15.0/nios2eds/bin/gnu/h-x86_64-mingw32/bin/../lib/gcc/nios2-elf/4.9.1/../../../../../H-x86_64-mingw32/nios2-elf/lib\libc.a(lib_a-__atexit.o)
 .comment       0x0000000000000000       0x24 c:/altera/15.0/nios2eds/bin/gnu/h-x86_64-mingw32/bin/../lib/gcc/nios2-elf/4.9.1/../../../../../H-x86_64-mingw32/nios2-elf/lib\libc.a(lib_a-__call_atexit.o)
 .comment       0x0000000000000000       0x24 ../LT24_final_sw_bsp/\libucosii_bsp.a(alt_exit.o)

.debug
 *(.debug)

.line
 *(.line)

.debug_srcinfo
 *(.debug_srcinfo)

.debug_sfnames
 *(.debug_sfnames)

.debug_aranges  0x0000000000000000     0x10d0
 *(.debug_aranges)
 .debug_aranges
                0x0000000000000000       0x28 ../LT24_final_sw_bsp//obj/HAL/src/crt0.o
 .debug_aranges
                0x0000000000000028       0x20 obj/default/demo/gui.o
 .debug_aranges
                0x0000000000000048       0x18 obj/default/fonts/tahomabold_20.o
 .debug_aranges
                0x0000000000000060       0x18 obj/default/fonts/tahomabold_32.o
 .debug_aranges
                0x0000000000000078       0x20 obj/default/graphic_lib/ILI9341.o
 .debug_aranges
                0x0000000000000098       0x20 obj/default/graphic_lib/geometry.o
 .debug_aranges
                0x00000000000000b8       0x20 obj/default/graphic_lib/simple_graphics.o
 .debug_aranges
                0x00000000000000d8       0x20 obj/default/graphic_lib/simple_text.o
 .debug_aranges
                0x00000000000000f8       0x20 obj/default/main.o
 .debug_aranges
                0x0000000000000118       0x20 obj/default/terasic_lib/accelerometer_adxl345_spi.o
 .debug_aranges
                0x0000000000000138       0x20 obj/default/terasic_lib/terasic_spi.o
 .debug_aranges
                0x0000000000000158       0x20 obj/default/terasic_lib/touch_spi.o
 .debug_aranges
                0x0000000000000178       0x20 c:/altera/15.0/nios2eds/bin/gnu/h-x86_64-mingw32/bin/../lib/gcc/nios2-elf/4.9.1/../../../../../H-x86_64-mingw32/nios2-elf/lib\libm.a(lib_a-w_sqrt.o)
 .debug_aranges
                0x0000000000000198       0x20 c:/altera/15.0/nios2eds/bin/gnu/h-x86_64-mingw32/bin/../lib/gcc/nios2-elf/4.9.1/../../../../../H-x86_64-mingw32/nios2-elf/lib\libm.a(lib_a-e_sqrt.o)
 .debug_aranges
                0x00000000000001b8       0x20 c:/altera/15.0/nios2eds/bin/gnu/h-x86_64-mingw32/bin/../lib/gcc/nios2-elf/4.9.1/../../../../../H-x86_64-mingw32/nios2-elf/lib\libm.a(lib_a-s_fpclassify.o)
 .debug_aranges
                0x00000000000001d8       0x18 c:/altera/15.0/nios2eds/bin/gnu/h-x86_64-mingw32/bin/../lib/gcc/nios2-elf/4.9.1/../../../../../H-x86_64-mingw32/nios2-elf/lib\libm.a(lib_a-s_lib_ver.o)
 .debug_aranges
                0x00000000000001f0       0x20 c:/altera/15.0/nios2eds/bin/gnu/h-x86_64-mingw32/bin/../lib/gcc/nios2-elf/4.9.1/../../../../../H-x86_64-mingw32/nios2-elf/lib\libm.a(lib_a-s_matherr.o)
 .debug_aranges
                0x0000000000000210       0x20 c:/altera/15.0/nios2eds/bin/gnu/h-x86_64-mingw32/bin/../lib/gcc/nios2-elf/4.9.1\libgcc.a(lib2-divmod.o)
 .debug_aranges
                0x0000000000000230       0x20 c:/altera/15.0/nios2eds/bin/gnu/h-x86_64-mingw32/bin/../lib/gcc/nios2-elf/4.9.1\libgcc.a(adddf3.o)
 .debug_aranges
                0x0000000000000250       0x20 c:/altera/15.0/nios2eds/bin/gnu/h-x86_64-mingw32/bin/../lib/gcc/nios2-elf/4.9.1\libgcc.a(divdf3.o)
 .debug_aranges
                0x0000000000000270       0x20 c:/altera/15.0/nios2eds/bin/gnu/h-x86_64-mingw32/bin/../lib/gcc/nios2-elf/4.9.1\libgcc.a(ledf2.o)
 .debug_aranges
                0x0000000000000290       0x20 c:/altera/15.0/nios2eds/bin/gnu/h-x86_64-mingw32/bin/../lib/gcc/nios2-elf/4.9.1\libgcc.a(muldf3.o)
 .debug_aranges
                0x00000000000002b0       0x20 c:/altera/15.0/nios2eds/bin/gnu/h-x86_64-mingw32/bin/../lib/gcc/nios2-elf/4.9.1\libgcc.a(subdf3.o)
 .debug_aranges
                0x00000000000002d0       0x20 c:/altera/15.0/nios2eds/bin/gnu/h-x86_64-mingw32/bin/../lib/gcc/nios2-elf/4.9.1\libgcc.a(fixdfsi.o)
 .debug_aranges
                0x00000000000002f0       0x20 c:/altera/15.0/nios2eds/bin/gnu/h-x86_64-mingw32/bin/../lib/gcc/nios2-elf/4.9.1\libgcc.a(floatsidf.o)
 .debug_aranges
                0x0000000000000310       0x20 c:/altera/15.0/nios2eds/bin/gnu/h-x86_64-mingw32/bin/../lib/gcc/nios2-elf/4.9.1\libgcc.a(_clzsi2.o)
 .debug_aranges
                0x0000000000000330       0x18 c:/altera/15.0/nios2eds/bin/gnu/h-x86_64-mingw32/bin/../lib/gcc/nios2-elf/4.9.1\libgcc.a(_clz.o)
 .debug_aranges
                0x0000000000000348       0x20 c:/altera/15.0/nios2eds/bin/gnu/h-x86_64-mingw32/bin/../lib/gcc/nios2-elf/4.9.1/../../../../../H-x86_64-mingw32/nios2-elf/lib\libc.a(lib_a-errno.o)
 .debug_aranges
                0x0000000000000368       0x18 c:/altera/15.0/nios2eds/bin/gnu/h-x86_64-mingw32/bin/../lib/gcc/nios2-elf/4.9.1/../../../../../H-x86_64-mingw32/nios2-elf/lib\libc.a(lib_a-impure.o)
 .debug_aranges
                0x0000000000000380       0x20 c:/altera/15.0/nios2eds/bin/gnu/h-x86_64-mingw32/bin/../lib/gcc/nios2-elf/4.9.1/../../../../../H-x86_64-mingw32/nios2-elf/lib\libc.a(lib_a-malloc.o)
 .debug_aranges
                0x00000000000003a0       0x20 c:/altera/15.0/nios2eds/bin/gnu/h-x86_64-mingw32/bin/../lib/gcc/nios2-elf/4.9.1/../../../../../H-x86_64-mingw32/nios2-elf/lib\libc.a(lib_a-mallocr.o)
 .debug_aranges
                0x00000000000003c0       0x20 c:/altera/15.0/nios2eds/bin/gnu/h-x86_64-mingw32/bin/../lib/gcc/nios2-elf/4.9.1/../../../../../H-x86_64-mingw32/nios2-elf/lib\libc.a(lib_a-memcpy.o)
 .debug_aranges
                0x00000000000003e0       0x20 c:/altera/15.0/nios2eds/bin/gnu/h-x86_64-mingw32/bin/../lib/gcc/nios2-elf/4.9.1/../../../../../H-x86_64-mingw32/nios2-elf/lib\libc.a(lib_a-memset.o)
 .debug_aranges
                0x0000000000000400       0x20 c:/altera/15.0/nios2eds/bin/gnu/h-x86_64-mingw32/bin/../lib/gcc/nios2-elf/4.9.1/../../../../../H-x86_64-mingw32/nios2-elf/lib\libc.a(lib_a-printf.o)
 .debug_aranges
                0x0000000000000420       0x20 c:/altera/15.0/nios2eds/bin/gnu/h-x86_64-mingw32/bin/../lib/gcc/nios2-elf/4.9.1/../../../../../H-x86_64-mingw32/nios2-elf/lib\libc.a(lib_a-puts.o)
 .debug_aranges
                0x0000000000000440       0x20 c:/altera/15.0/nios2eds/bin/gnu/h-x86_64-mingw32/bin/../lib/gcc/nios2-elf/4.9.1/../../../../../H-x86_64-mingw32/nios2-elf/lib\libc.a(lib_a-sbrkr.o)
 .debug_aranges
                0x0000000000000460       0x20 c:/altera/15.0/nios2eds/bin/gnu/h-x86_64-mingw32/bin/../lib/gcc/nios2-elf/4.9.1/../../../../../H-x86_64-mingw32/nios2-elf/lib\libc.a(lib_a-strcpy.o)
 .debug_aranges
                0x0000000000000480       0x20 c:/altera/15.0/nios2eds/bin/gnu/h-x86_64-mingw32/bin/../lib/gcc/nios2-elf/4.9.1/../../../../../H-x86_64-mingw32/nios2-elf/lib\libc.a(lib_a-strlen.o)
 .debug_aranges
                0x00000000000004a0       0x20 c:/altera/15.0/nios2eds/bin/gnu/h-x86_64-mingw32/bin/../lib/gcc/nios2-elf/4.9.1/../../../../../H-x86_64-mingw32/nios2-elf/lib\libc.a(lib_a-vfprintf.o)
 .debug_aranges
                0x00000000000004c0       0x20 c:/altera/15.0/nios2eds/bin/gnu/h-x86_64-mingw32/bin/../lib/gcc/nios2-elf/4.9.1/../../../../../H-x86_64-mingw32/nios2-elf/lib\libc.a(lib_a-wsetup.o)
 .debug_aranges
                0x00000000000004e0       0x20 c:/altera/15.0/nios2eds/bin/gnu/h-x86_64-mingw32/bin/../lib/gcc/nios2-elf/4.9.1/../../../../../H-x86_64-mingw32/nios2-elf/lib\libc.a(lib_a-dtoa.o)
 .debug_aranges
                0x0000000000000500       0x20 c:/altera/15.0/nios2eds/bin/gnu/h-x86_64-mingw32/bin/../lib/gcc/nios2-elf/4.9.1/../../../../../H-x86_64-mingw32/nios2-elf/lib\libc.a(lib_a-fflush.o)
 .debug_aranges
                0x0000000000000520       0x20 c:/altera/15.0/nios2eds/bin/gnu/h-x86_64-mingw32/bin/../lib/gcc/nios2-elf/4.9.1/../../../../../H-x86_64-mingw32/nios2-elf/lib\libc.a(lib_a-findfp.o)
 .debug_aranges
                0x0000000000000540       0x20 c:/altera/15.0/nios2eds/bin/gnu/h-x86_64-mingw32/bin/../lib/gcc/nios2-elf/4.9.1/../../../../../H-x86_64-mingw32/nios2-elf/lib\libc.a(lib_a-freer.o)
 .debug_aranges
                0x0000000000000560       0x20 c:/altera/15.0/nios2eds/bin/gnu/h-x86_64-mingw32/bin/../lib/gcc/nios2-elf/4.9.1/../../../../../H-x86_64-mingw32/nios2-elf/lib\libc.a(lib_a-fvwrite.o)
 .debug_aranges
                0x0000000000000580       0x20 c:/altera/15.0/nios2eds/bin/gnu/h-x86_64-mingw32/bin/../lib/gcc/nios2-elf/4.9.1/../../../../../H-x86_64-mingw32/nios2-elf/lib\libc.a(lib_a-fwalk.o)
 .debug_aranges
                0x00000000000005a0       0x18 c:/altera/15.0/nios2eds/bin/gnu/h-x86_64-mingw32/bin/../lib/gcc/nios2-elf/4.9.1/../../../../../H-x86_64-mingw32/nios2-elf/lib\libc.a(lib_a-int_errno.o)
 .debug_aranges
                0x00000000000005b8       0x20 c:/altera/15.0/nios2eds/bin/gnu/h-x86_64-mingw32/bin/../lib/gcc/nios2-elf/4.9.1/../../../../../H-x86_64-mingw32/nios2-elf/lib\libc.a(lib_a-locale.o)
 .debug_aranges
                0x00000000000005d8       0x20 c:/altera/15.0/nios2eds/bin/gnu/h-x86_64-mingw32/bin/../lib/gcc/nios2-elf/4.9.1/../../../../../H-x86_64-mingw32/nios2-elf/lib\libc.a(lib_a-makebuf.o)
 .debug_aranges
                0x00000000000005f8       0x20 c:/altera/15.0/nios2eds/bin/gnu/h-x86_64-mingw32/bin/../lib/gcc/nios2-elf/4.9.1/../../../../../H-x86_64-mingw32/nios2-elf/lib\libc.a(lib_a-memchr.o)
 .debug_aranges
                0x0000000000000618       0x20 c:/altera/15.0/nios2eds/bin/gnu/h-x86_64-mingw32/bin/../lib/gcc/nios2-elf/4.9.1/../../../../../H-x86_64-mingw32/nios2-elf/lib\libc.a(lib_a-memmove.o)
 .debug_aranges
                0x0000000000000638       0x20 c:/altera/15.0/nios2eds/bin/gnu/h-x86_64-mingw32/bin/../lib/gcc/nios2-elf/4.9.1/../../../../../H-x86_64-mingw32/nios2-elf/lib\libc.a(lib_a-mprec.o)
 .debug_aranges
                0x0000000000000658       0x20 c:/altera/15.0/nios2eds/bin/gnu/h-x86_64-mingw32/bin/../lib/gcc/nios2-elf/4.9.1/../../../../../H-x86_64-mingw32/nios2-elf/lib\libc.a(lib_a-reallocr.o)
 .debug_aranges
                0x0000000000000678       0x20 c:/altera/15.0/nios2eds/bin/gnu/h-x86_64-mingw32/bin/../lib/gcc/nios2-elf/4.9.1/../../../../../H-x86_64-mingw32/nios2-elf/lib\libc.a(lib_a-stdio.o)
 .debug_aranges
                0x0000000000000698       0x20 c:/altera/15.0/nios2eds/bin/gnu/h-x86_64-mingw32/bin/../lib/gcc/nios2-elf/4.9.1/../../../../../H-x86_64-mingw32/nios2-elf/lib\libc.a(lib_a-strcmp.o)
 .debug_aranges
                0x00000000000006b8       0x20 c:/altera/15.0/nios2eds/bin/gnu/h-x86_64-mingw32/bin/../lib/gcc/nios2-elf/4.9.1/../../../../../H-x86_64-mingw32/nios2-elf/lib\libc.a(lib_a-vfiprintf.o)
 .debug_aranges
                0x00000000000006d8       0x20 c:/altera/15.0/nios2eds/bin/gnu/h-x86_64-mingw32/bin/../lib/gcc/nios2-elf/4.9.1/../../../../../H-x86_64-mingw32/nios2-elf/lib\libc.a(lib_a-writer.o)
 .debug_aranges
                0x00000000000006f8       0x20 c:/altera/15.0/nios2eds/bin/gnu/h-x86_64-mingw32/bin/../lib/gcc/nios2-elf/4.9.1/../../../../../H-x86_64-mingw32/nios2-elf/lib\libc.a(closer.o)
 .debug_aranges
                0x0000000000000718       0x20 c:/altera/15.0/nios2eds/bin/gnu/h-x86_64-mingw32/bin/../lib/gcc/nios2-elf/4.9.1/../../../../../H-x86_64-mingw32/nios2-elf/lib\libc.a(lib_a-callocr.o)
 .debug_aranges
                0x0000000000000738       0x20 c:/altera/15.0/nios2eds/bin/gnu/h-x86_64-mingw32/bin/../lib/gcc/nios2-elf/4.9.1/../../../../../H-x86_64-mingw32/nios2-elf/lib\libc.a(lib_a-fclose.o)
 .debug_aranges
                0x0000000000000758       0x20 c:/altera/15.0/nios2eds/bin/gnu/h-x86_64-mingw32/bin/../lib/gcc/nios2-elf/4.9.1/../../../../../H-x86_64-mingw32/nios2-elf/lib\libc.a(lib_a-fputwc.o)
 .debug_aranges
                0x0000000000000778       0x20 c:/altera/15.0/nios2eds/bin/gnu/h-x86_64-mingw32/bin/../lib/gcc/nios2-elf/4.9.1/../../../../../H-x86_64-mingw32/nios2-elf/lib\libc.a(lib_a-fstatr.o)
 .debug_aranges
                0x0000000000000798       0x20 c:/altera/15.0/nios2eds/bin/gnu/h-x86_64-mingw32/bin/../lib/gcc/nios2-elf/4.9.1/../../../../../H-x86_64-mingw32/nios2-elf/lib\libc.a(lib_a-isattyr.o)
 .debug_aranges
                0x00000000000007b8       0x20 c:/altera/15.0/nios2eds/bin/gnu/h-x86_64-mingw32/bin/../lib/gcc/nios2-elf/4.9.1/../../../../../H-x86_64-mingw32/nios2-elf/lib\libc.a(lib_a-lseekr.o)
 .debug_aranges
                0x00000000000007d8       0x20 c:/altera/15.0/nios2eds/bin/gnu/h-x86_64-mingw32/bin/../lib/gcc/nios2-elf/4.9.1/../../../../../H-x86_64-mingw32/nios2-elf/lib\libc.a(lib_a-readr.o)
 .debug_aranges
                0x00000000000007f8       0x20 c:/altera/15.0/nios2eds/bin/gnu/h-x86_64-mingw32/bin/../lib/gcc/nios2-elf/4.9.1/../../../../../H-x86_64-mingw32/nios2-elf/lib\libc.a(lib_a-wbuf.o)
 .debug_aranges
                0x0000000000000818       0x20 c:/altera/15.0/nios2eds/bin/gnu/h-x86_64-mingw32/bin/../lib/gcc/nios2-elf/4.9.1/../../../../../H-x86_64-mingw32/nios2-elf/lib\libc.a(lib_a-wcrtomb.o)
 .debug_aranges
                0x0000000000000838       0x20 c:/altera/15.0/nios2eds/bin/gnu/h-x86_64-mingw32/bin/../lib/gcc/nios2-elf/4.9.1/../../../../../H-x86_64-mingw32/nios2-elf/lib\libc.a(lib_a-wctomb_r.o)
 .debug_aranges
                0x0000000000000858       0x20 c:/altera/15.0/nios2eds/bin/gnu/h-x86_64-mingw32/bin/../lib/gcc/nios2-elf/4.9.1\libgcc.a(_udivdi3.o)
 .debug_aranges
                0x0000000000000878       0x20 c:/altera/15.0/nios2eds/bin/gnu/h-x86_64-mingw32/bin/../lib/gcc/nios2-elf/4.9.1\libgcc.a(_umoddi3.o)
 .debug_aranges
                0x0000000000000898       0x20 c:/altera/15.0/nios2eds/bin/gnu/h-x86_64-mingw32/bin/../lib/gcc/nios2-elf/4.9.1\libgcc.a(eqdf2.o)
 .debug_aranges
                0x00000000000008b8       0x20 c:/altera/15.0/nios2eds/bin/gnu/h-x86_64-mingw32/bin/../lib/gcc/nios2-elf/4.9.1\libgcc.a(gedf2.o)
 .debug_aranges
                0x00000000000008d8       0x20 c:/altera/15.0/nios2eds/bin/gnu/h-x86_64-mingw32/bin/../lib/gcc/nios2-elf/4.9.1\libgcc.a(floatunsidf.o)
 .debug_aranges
                0x00000000000008f8       0x20 ../LT24_final_sw_bsp/\libucosii_bsp.a(alt_alarm_start.o)
 .debug_aranges
                0x0000000000000918       0x20 ../LT24_final_sw_bsp/\libucosii_bsp.a(alt_close.o)
 .debug_aranges
                0x0000000000000938       0x20 ../LT24_final_sw_bsp/\libucosii_bsp.a(alt_dev.o)
 .debug_aranges
                0x0000000000000958       0x18 ../LT24_final_sw_bsp/\libucosii_bsp.a(alt_errno.o)
 .debug_aranges
                0x0000000000000970       0x20 ../LT24_final_sw_bsp/\libucosii_bsp.a(alt_fstat.o)
 .debug_aranges
                0x0000000000000990       0x20 ../LT24_final_sw_bsp/\libucosii_bsp.a(alt_iic.o)
 .debug_aranges
                0x00000000000009b0       0x20 ../LT24_final_sw_bsp/\libucosii_bsp.a(alt_iic_isr_register.o)
 .debug_aranges
                0x00000000000009d0       0x30 ../LT24_final_sw_bsp/\libucosii_bsp.a(alt_irq_entry.o)
 .debug_aranges
                0x0000000000000a00       0x20 ../LT24_final_sw_bsp/\libucosii_bsp.a(alt_irq_handler.o)
 .debug_aranges
                0x0000000000000a20       0x18 ../LT24_final_sw_bsp/\libucosii_bsp.a(alt_irq_vars.o)
 .debug_aranges
                0x0000000000000a38       0x20 ../LT24_final_sw_bsp/\libucosii_bsp.a(alt_isatty.o)
 .debug_aranges
                0x0000000000000a58       0x20 ../LT24_final_sw_bsp/\libucosii_bsp.a(alt_load.o)
 .debug_aranges
                0x0000000000000a78       0x20 ../LT24_final_sw_bsp/\libucosii_bsp.a(alt_lseek.o)
 .debug_aranges
                0x0000000000000a98       0x20 ../LT24_final_sw_bsp/\libucosii_bsp.a(alt_main.o)
 .debug_aranges
                0x0000000000000ab8       0x20 ../LT24_final_sw_bsp/\libucosii_bsp.a(alt_read.o)
 .debug_aranges
                0x0000000000000ad8       0x20 ../LT24_final_sw_bsp/\libucosii_bsp.a(alt_release_fd.o)
 .debug_aranges
                0x0000000000000af8       0x20 ../LT24_final_sw_bsp/\libucosii_bsp.a(alt_sbrk.o)
 .debug_aranges
                0x0000000000000b18       0x20 ../LT24_final_sw_bsp/\libucosii_bsp.a(alt_tick.o)
 .debug_aranges
                0x0000000000000b38       0x20 ../LT24_final_sw_bsp/\libucosii_bsp.a(alt_usleep.o)
 .debug_aranges
                0x0000000000000b58       0x20 ../LT24_final_sw_bsp/\libucosii_bsp.a(alt_write.o)
 .debug_aranges
                0x0000000000000b78       0x20 ../LT24_final_sw_bsp/\libucosii_bsp.a(alt_env_lock.o)
 .debug_aranges
                0x0000000000000b98       0x20 ../LT24_final_sw_bsp/\libucosii_bsp.a(alt_malloc_lock.o)
 .debug_aranges
                0x0000000000000bb8       0x20 ../LT24_final_sw_bsp/\libucosii_bsp.a(os_core.o)
 .debug_aranges
                0x0000000000000bd8       0x20 ../LT24_final_sw_bsp/\libucosii_bsp.a(os_dbg.o)
 .debug_aranges
                0x0000000000000bf8       0x20 ../LT24_final_sw_bsp/\libucosii_bsp.a(os_flag.o)
 .debug_aranges
                0x0000000000000c18       0x20 ../LT24_final_sw_bsp/\libucosii_bsp.a(os_mbox.o)
 .debug_aranges
                0x0000000000000c38       0x20 ../LT24_final_sw_bsp/\libucosii_bsp.a(os_mem.o)
 .debug_aranges
                0x0000000000000c58       0x20 ../LT24_final_sw_bsp/\libucosii_bsp.a(os_mutex.o)
 .debug_aranges
                0x0000000000000c78       0x20 ../LT24_final_sw_bsp/\libucosii_bsp.a(os_q.o)
 .debug_aranges
                0x0000000000000c98       0x20 ../LT24_final_sw_bsp/\libucosii_bsp.a(os_sem.o)
 .debug_aranges
                0x0000000000000cb8       0x20 ../LT24_final_sw_bsp/\libucosii_bsp.a(os_task.o)
 .debug_aranges
                0x0000000000000cd8       0x20 ../LT24_final_sw_bsp/\libucosii_bsp.a(os_time.o)
 .debug_aranges
                0x0000000000000cf8       0x20 ../LT24_final_sw_bsp/\libucosii_bsp.a(alt_sys_init.o)
 .debug_aranges
                0x0000000000000d18       0x20 ../LT24_final_sw_bsp/\libucosii_bsp.a(altera_avalon_jtag_uart_fd.o)
 .debug_aranges
                0x0000000000000d38       0x20 ../LT24_final_sw_bsp/\libucosii_bsp.a(altera_avalon_jtag_uart_init.o)
 .debug_aranges
                0x0000000000000d58       0x20 ../LT24_final_sw_bsp/\libucosii_bsp.a(altera_avalon_jtag_uart_ioctl.o)
 .debug_aranges
                0x0000000000000d78       0x20 ../LT24_final_sw_bsp/\libucosii_bsp.a(altera_avalon_jtag_uart_read.o)
 .debug_aranges
                0x0000000000000d98       0x20 ../LT24_final_sw_bsp/\libucosii_bsp.a(altera_avalon_jtag_uart_write.o)
 .debug_aranges
                0x0000000000000db8       0x20 ../LT24_final_sw_bsp/\libucosii_bsp.a(altera_avalon_spi.o)
 .debug_aranges
                0x0000000000000dd8       0x20 ../LT24_final_sw_bsp/\libucosii_bsp.a(altera_avalon_timer_sc.o)
 .debug_aranges
                0x0000000000000df8       0x20 ../LT24_final_sw_bsp/\libucosii_bsp.a(alt_busy_sleep.o)
 .debug_aranges
                0x0000000000000e18       0x20 ../LT24_final_sw_bsp/\libucosii_bsp.a(alt_dcache_flush_all.o)
 .debug_aranges
                0x0000000000000e38       0x20 ../LT24_final_sw_bsp/\libucosii_bsp.a(alt_dev_llist_insert.o)
 .debug_aranges
                0x0000000000000e58       0x20 ../LT24_final_sw_bsp/\libucosii_bsp.a(alt_do_ctors.o)
 .debug_aranges
                0x0000000000000e78       0x20 ../LT24_final_sw_bsp/\libucosii_bsp.a(alt_do_dtors.o)
 .debug_aranges
                0x0000000000000e98       0x38 ../LT24_final_sw_bsp/\libucosii_bsp.a(alt_exception_entry.o)
 .debug_aranges
                0x0000000000000ed0       0x20 ../LT24_final_sw_bsp/\libucosii_bsp.a(alt_icache_flush_all.o)
 .debug_aranges
                0x0000000000000ef0       0x20 ../LT24_final_sw_bsp/\libucosii_bsp.a(alt_io_redirect.o)
 .debug_aranges
                0x0000000000000f10       0x20 ../LT24_final_sw_bsp/\libucosii_bsp.a(alt_open.o)
 .debug_aranges
                0x0000000000000f30       0x20 ../LT24_final_sw_bsp/\libucosii_bsp.a(altera_nios2_qsys_irq.o)
 .debug_aranges
                0x0000000000000f50       0x20 ../LT24_final_sw_bsp/\libucosii_bsp.a(os_cpu_a.o)
 .debug_aranges
                0x0000000000000f70       0x20 ../LT24_final_sw_bsp/\libucosii_bsp.a(os_cpu_c.o)
 .debug_aranges
                0x0000000000000f90       0x20 ../LT24_final_sw_bsp/\libucosii_bsp.a(alt_find_dev.o)
 .debug_aranges
                0x0000000000000fb0       0x20 ../LT24_final_sw_bsp/\libucosii_bsp.a(alt_find_file.o)
 .debug_aranges
                0x0000000000000fd0       0x20 ../LT24_final_sw_bsp/\libucosii_bsp.a(alt_get_fd.o)
 .debug_aranges
                0x0000000000000ff0       0x20 ../LT24_final_sw_bsp/\libucosii_bsp.a(alt_icache_flush.o)
 .debug_aranges
                0x0000000000001010       0x20 c:/altera/15.0/nios2eds/bin/gnu/h-x86_64-mingw32/bin/../lib/gcc/nios2-elf/4.9.1/../../../../../H-x86_64-mingw32/nios2-elf/lib\libc.a(lib_a-atexit.o)
 .debug_aranges
                0x0000000000001030       0x20 c:/altera/15.0/nios2eds/bin/gnu/h-x86_64-mingw32/bin/../lib/gcc/nios2-elf/4.9.1/../../../../../H-x86_64-mingw32/nios2-elf/lib\libc.a(lib_a-exit.o)
 .debug_aranges
                0x0000000000001050       0x20 c:/altera/15.0/nios2eds/bin/gnu/h-x86_64-mingw32/bin/../lib/gcc/nios2-elf/4.9.1/../../../../../H-x86_64-mingw32/nios2-elf/lib\libc.a(lib_a-memcmp.o)
 .debug_aranges
                0x0000000000001070       0x20 c:/altera/15.0/nios2eds/bin/gnu/h-x86_64-mingw32/bin/../lib/gcc/nios2-elf/4.9.1/../../../../../H-x86_64-mingw32/nios2-elf/lib\libc.a(lib_a-__atexit.o)
 .debug_aranges
                0x0000000000001090       0x20 c:/altera/15.0/nios2eds/bin/gnu/h-x86_64-mingw32/bin/../lib/gcc/nios2-elf/4.9.1/../../../../../H-x86_64-mingw32/nios2-elf/lib\libc.a(lib_a-__call_atexit.o)
 .debug_aranges
                0x00000000000010b0       0x20 ../LT24_final_sw_bsp/\libucosii_bsp.a(alt_exit.o)

.debug_pubnames
 *(.debug_pubnames)

.debug_info     0x0000000000000000    0x348b7
 *(.debug_info .gnu.linkonce.wi.*)
 .debug_info    0x0000000000000000       0x6f ../LT24_final_sw_bsp//obj/HAL/src/crt0.o
 .debug_info    0x000000000000006f      0x65f obj/default/demo/gui.o
 .debug_info    0x00000000000006ce      0xa47 obj/default/fonts/tahomabold_20.o
 .debug_info    0x0000000000001115      0xac4 obj/default/fonts/tahomabold_32.o
 .debug_info    0x0000000000001bd9      0x293 obj/default/graphic_lib/ILI9341.o
 .debug_info    0x0000000000001e6c      0x3e0 obj/default/graphic_lib/geometry.o
 .debug_info    0x000000000000224c     0x14f3 obj/default/graphic_lib/simple_graphics.o
 .debug_info    0x000000000000373f      0x622 obj/default/graphic_lib/simple_text.o
 .debug_info    0x0000000000003d61      0x64d obj/default/main.o
 .debug_info    0x00000000000043ae      0x2b7 obj/default/terasic_lib/accelerometer_adxl345_spi.o
 .debug_info    0x0000000000004665      0x322 obj/default/terasic_lib/terasic_spi.o
 .debug_info    0x0000000000004987      0x5d4 obj/default/terasic_lib/touch_spi.o
 .debug_info    0x0000000000004f5b      0x207 c:/altera/15.0/nios2eds/bin/gnu/h-x86_64-mingw32/bin/../lib/gcc/nios2-elf/4.9.1/../../../../../H-x86_64-mingw32/nios2-elf/lib\libm.a(lib_a-w_sqrt.o)
 .debug_info    0x0000000000005162      0x1ad c:/altera/15.0/nios2eds/bin/gnu/h-x86_64-mingw32/bin/../lib/gcc/nios2-elf/4.9.1/../../../../../H-x86_64-mingw32/nios2-elf/lib\libm.a(lib_a-e_sqrt.o)
 .debug_info    0x000000000000530f       0xdc c:/altera/15.0/nios2eds/bin/gnu/h-x86_64-mingw32/bin/../lib/gcc/nios2-elf/4.9.1/../../../../../H-x86_64-mingw32/nios2-elf/lib\libm.a(lib_a-s_fpclassify.o)
 .debug_info    0x00000000000053eb       0xbe c:/altera/15.0/nios2eds/bin/gnu/h-x86_64-mingw32/bin/../lib/gcc/nios2-elf/4.9.1/../../../../../H-x86_64-mingw32/nios2-elf/lib\libm.a(lib_a-s_lib_ver.o)
 .debug_info    0x00000000000054a9      0x127 c:/altera/15.0/nios2eds/bin/gnu/h-x86_64-mingw32/bin/../lib/gcc/nios2-elf/4.9.1/../../../../../H-x86_64-mingw32/nios2-elf/lib\libm.a(lib_a-s_matherr.o)
 .debug_info    0x00000000000055d0      0x234 c:/altera/15.0/nios2eds/bin/gnu/h-x86_64-mingw32/bin/../lib/gcc/nios2-elf/4.9.1\libgcc.a(lib2-divmod.o)
 .debug_info    0x0000000000005804      0x485 c:/altera/15.0/nios2eds/bin/gnu/h-x86_64-mingw32/bin/../lib/gcc/nios2-elf/4.9.1\libgcc.a(adddf3.o)
 .debug_info    0x0000000000005c89      0x5c6 c:/altera/15.0/nios2eds/bin/gnu/h-x86_64-mingw32/bin/../lib/gcc/nios2-elf/4.9.1\libgcc.a(divdf3.o)
 .debug_info    0x000000000000624f      0x202 c:/altera/15.0/nios2eds/bin/gnu/h-x86_64-mingw32/bin/../lib/gcc/nios2-elf/4.9.1\libgcc.a(ledf2.o)
 .debug_info    0x0000000000006451      0x5f2 c:/altera/15.0/nios2eds/bin/gnu/h-x86_64-mingw32/bin/../lib/gcc/nios2-elf/4.9.1\libgcc.a(muldf3.o)
 .debug_info    0x0000000000006a43      0x4a2 c:/altera/15.0/nios2eds/bin/gnu/h-x86_64-mingw32/bin/../lib/gcc/nios2-elf/4.9.1\libgcc.a(subdf3.o)
 .debug_info    0x0000000000006ee5      0x1a6 c:/altera/15.0/nios2eds/bin/gnu/h-x86_64-mingw32/bin/../lib/gcc/nios2-elf/4.9.1\libgcc.a(fixdfsi.o)
 .debug_info    0x000000000000708b      0x1b6 c:/altera/15.0/nios2eds/bin/gnu/h-x86_64-mingw32/bin/../lib/gcc/nios2-elf/4.9.1\libgcc.a(floatsidf.o)
 .debug_info    0x0000000000007241      0x11d c:/altera/15.0/nios2eds/bin/gnu/h-x86_64-mingw32/bin/../lib/gcc/nios2-elf/4.9.1\libgcc.a(_clzsi2.o)
 .debug_info    0x000000000000735e       0xab c:/altera/15.0/nios2eds/bin/gnu/h-x86_64-mingw32/bin/../lib/gcc/nios2-elf/4.9.1\libgcc.a(_clz.o)
 .debug_info    0x0000000000007409      0x884 c:/altera/15.0/nios2eds/bin/gnu/h-x86_64-mingw32/bin/../lib/gcc/nios2-elf/4.9.1/../../../../../H-x86_64-mingw32/nios2-elf/lib\libc.a(lib_a-errno.o)
 .debug_info    0x0000000000007c8d      0x88f c:/altera/15.0/nios2eds/bin/gnu/h-x86_64-mingw32/bin/../lib/gcc/nios2-elf/4.9.1/../../../../../H-x86_64-mingw32/nios2-elf/lib\libc.a(lib_a-impure.o)
 .debug_info    0x000000000000851c      0x910 c:/altera/15.0/nios2eds/bin/gnu/h-x86_64-mingw32/bin/../lib/gcc/nios2-elf/4.9.1/../../../../../H-x86_64-mingw32/nios2-elf/lib\libc.a(lib_a-malloc.o)
 .debug_info    0x0000000000008e2c      0xd71 c:/altera/15.0/nios2eds/bin/gnu/h-x86_64-mingw32/bin/../lib/gcc/nios2-elf/4.9.1/../../../../../H-x86_64-mingw32/nios2-elf/lib\libc.a(lib_a-mallocr.o)
 .debug_info    0x0000000000009b9d      0x133 c:/altera/15.0/nios2eds/bin/gnu/h-x86_64-mingw32/bin/../lib/gcc/nios2-elf/4.9.1/../../../../../H-x86_64-mingw32/nios2-elf/lib\libc.a(lib_a-memcpy.o)
 .debug_info    0x0000000000009cd0      0x11a c:/altera/15.0/nios2eds/bin/gnu/h-x86_64-mingw32/bin/../lib/gcc/nios2-elf/4.9.1/../../../../../H-x86_64-mingw32/nios2-elf/lib\libc.a(lib_a-memset.o)
 .debug_info    0x0000000000009dea      0x9af c:/altera/15.0/nios2eds/bin/gnu/h-x86_64-mingw32/bin/../lib/gcc/nios2-elf/4.9.1/../../../../../H-x86_64-mingw32/nios2-elf/lib\libc.a(lib_a-printf.o)
 .debug_info    0x000000000000a799      0x9f4 c:/altera/15.0/nios2eds/bin/gnu/h-x86_64-mingw32/bin/../lib/gcc/nios2-elf/4.9.1/../../../../../H-x86_64-mingw32/nios2-elf/lib\libc.a(lib_a-puts.o)
 .debug_info    0x000000000000b18d      0x8ef c:/altera/15.0/nios2eds/bin/gnu/h-x86_64-mingw32/bin/../lib/gcc/nios2-elf/4.9.1/../../../../../H-x86_64-mingw32/nios2-elf/lib\libc.a(lib_a-sbrkr.o)
 .debug_info    0x000000000000ba7c      0x110 c:/altera/15.0/nios2eds/bin/gnu/h-x86_64-mingw32/bin/../lib/gcc/nios2-elf/4.9.1/../../../../../H-x86_64-mingw32/nios2-elf/lib\libc.a(lib_a-strcpy.o)
 .debug_info    0x000000000000bb8c       0xdb c:/altera/15.0/nios2eds/bin/gnu/h-x86_64-mingw32/bin/../lib/gcc/nios2-elf/4.9.1/../../../../../H-x86_64-mingw32/nios2-elf/lib\libc.a(lib_a-strlen.o)
 .debug_info    0x000000000000bc67     0x17d1 c:/altera/15.0/nios2eds/bin/gnu/h-x86_64-mingw32/bin/../lib/gcc/nios2-elf/4.9.1/../../../../../H-x86_64-mingw32/nios2-elf/lib\libc.a(lib_a-vfprintf.o)
 .debug_info    0x000000000000d438      0x91d c:/altera/15.0/nios2eds/bin/gnu/h-x86_64-mingw32/bin/../lib/gcc/nios2-elf/4.9.1/../../../../../H-x86_64-mingw32/nios2-elf/lib\libc.a(lib_a-wsetup.o)
 .debug_info    0x000000000000dd55     0x1348 c:/altera/15.0/nios2eds/bin/gnu/h-x86_64-mingw32/bin/../lib/gcc/nios2-elf/4.9.1/../../../../../H-x86_64-mingw32/nios2-elf/lib\libc.a(lib_a-dtoa.o)
 .debug_info    0x000000000000f09d      0xa3a c:/altera/15.0/nios2eds/bin/gnu/h-x86_64-mingw32/bin/../lib/gcc/nios2-elf/4.9.1/../../../../../H-x86_64-mingw32/nios2-elf/lib\libc.a(lib_a-fflush.o)
 .debug_info    0x000000000000fad7      0xd38 c:/altera/15.0/nios2eds/bin/gnu/h-x86_64-mingw32/bin/../lib/gcc/nios2-elf/4.9.1/../../../../../H-x86_64-mingw32/nios2-elf/lib\libc.a(lib_a-findfp.o)
 .debug_info    0x000000000001080f      0xc02 c:/altera/15.0/nios2eds/bin/gnu/h-x86_64-mingw32/bin/../lib/gcc/nios2-elf/4.9.1/../../../../../H-x86_64-mingw32/nios2-elf/lib\libc.a(lib_a-freer.o)
 .debug_info    0x0000000000011411      0xc31 c:/altera/15.0/nios2eds/bin/gnu/h-x86_64-mingw32/bin/../lib/gcc/nios2-elf/4.9.1/../../../../../H-x86_64-mingw32/nios2-elf/lib\libc.a(lib_a-fvwrite.o)
 .debug_info    0x0000000000012042      0xab7 c:/altera/15.0/nios2eds/bin/gnu/h-x86_64-mingw32/bin/../lib/gcc/nios2-elf/4.9.1/../../../../../H-x86_64-mingw32/nios2-elf/lib\libc.a(lib_a-fwalk.o)
 .debug_info    0x0000000000012af9       0x83 c:/altera/15.0/nios2eds/bin/gnu/h-x86_64-mingw32/bin/../lib/gcc/nios2-elf/4.9.1/../../../../../H-x86_64-mingw32/nios2-elf/lib\libc.a(lib_a-int_errno.o)
 .debug_info    0x0000000000012b7c      0xc19 c:/altera/15.0/nios2eds/bin/gnu/h-x86_64-mingw32/bin/../lib/gcc/nios2-elf/4.9.1/../../../../../H-x86_64-mingw32/nios2-elf/lib\libc.a(lib_a-locale.o)
 .debug_info    0x0000000000013795      0xaff c:/altera/15.0/nios2eds/bin/gnu/h-x86_64-mingw32/bin/../lib/gcc/nios2-elf/4.9.1/../../../../../H-x86_64-mingw32/nios2-elf/lib\libc.a(lib_a-makebuf.o)
 .debug_info    0x0000000000014294      0x12b c:/altera/15.0/nios2eds/bin/gnu/h-x86_64-mingw32/bin/../lib/gcc/nios2-elf/4.9.1/../../../../../H-x86_64-mingw32/nios2-elf/lib\libc.a(lib_a-memchr.o)
 .debug_info    0x00000000000143bf      0x133 c:/altera/15.0/nios2eds/bin/gnu/h-x86_64-mingw32/bin/../lib/gcc/nios2-elf/4.9.1/../../../../../H-x86_64-mingw32/nios2-elf/lib\libc.a(lib_a-memmove.o)
 .debug_info    0x00000000000144f2     0x1680 c:/altera/15.0/nios2eds/bin/gnu/h-x86_64-mingw32/bin/../lib/gcc/nios2-elf/4.9.1/../../../../../H-x86_64-mingw32/nios2-elf/lib\libc.a(lib_a-mprec.o)
 .debug_info    0x0000000000015b72      0xcc6 c:/altera/15.0/nios2eds/bin/gnu/h-x86_64-mingw32/bin/../lib/gcc/nios2-elf/4.9.1/../../../../../H-x86_64-mingw32/nios2-elf/lib\libc.a(lib_a-reallocr.o)
 .debug_info    0x0000000000016838      0xb83 c:/altera/15.0/nios2eds/bin/gnu/h-x86_64-mingw32/bin/../lib/gcc/nios2-elf/4.9.1/../../../../../H-x86_64-mingw32/nios2-elf/lib\libc.a(lib_a-stdio.o)
 .debug_info    0x00000000000173bb       0xdd c:/altera/15.0/nios2eds/bin/gnu/h-x86_64-mingw32/bin/../lib/gcc/nios2-elf/4.9.1/../../../../../H-x86_64-mingw32/nios2-elf/lib\libc.a(lib_a-strcmp.o)
 .debug_info    0x0000000000017498     0x1567 c:/altera/15.0/nios2eds/bin/gnu/h-x86_64-mingw32/bin/../lib/gcc/nios2-elf/4.9.1/../../../../../H-x86_64-mingw32/nios2-elf/lib\libc.a(lib_a-vfiprintf.o)
 .debug_info    0x00000000000189ff      0x921 c:/altera/15.0/nios2eds/bin/gnu/h-x86_64-mingw32/bin/../lib/gcc/nios2-elf/4.9.1/../../../../../H-x86_64-mingw32/nios2-elf/lib\libc.a(lib_a-writer.o)
 .debug_info    0x0000000000019320      0x8ce c:/altera/15.0/nios2eds/bin/gnu/h-x86_64-mingw32/bin/../lib/gcc/nios2-elf/4.9.1/../../../../../H-x86_64-mingw32/nios2-elf/lib\libc.a(closer.o)
 .debug_info    0x0000000000019bee      0x9e1 c:/altera/15.0/nios2eds/bin/gnu/h-x86_64-mingw32/bin/../lib/gcc/nios2-elf/4.9.1/../../../../../H-x86_64-mingw32/nios2-elf/lib\libc.a(lib_a-callocr.o)
 .debug_info    0x000000000001a5cf      0xa12 c:/altera/15.0/nios2eds/bin/gnu/h-x86_64-mingw32/bin/../lib/gcc/nios2-elf/4.9.1/../../../../../H-x86_64-mingw32/nios2-elf/lib\libc.a(lib_a-fclose.o)
 .debug_info    0x000000000001afe1      0xaac c:/altera/15.0/nios2eds/bin/gnu/h-x86_64-mingw32/bin/../lib/gcc/nios2-elf/4.9.1/../../../../../H-x86_64-mingw32/nios2-elf/lib\libc.a(lib_a-fputwc.o)
 .debug_info    0x000000000001ba8d      0xa5c c:/altera/15.0/nios2eds/bin/gnu/h-x86_64-mingw32/bin/../lib/gcc/nios2-elf/4.9.1/../../../../../H-x86_64-mingw32/nios2-elf/lib\libc.a(lib_a-fstatr.o)
 .debug_info    0x000000000001c4e9      0x8ce c:/altera/15.0/nios2eds/bin/gnu/h-x86_64-mingw32/bin/../lib/gcc/nios2-elf/4.9.1/../../../../../H-x86_64-mingw32/nios2-elf/lib\libc.a(lib_a-isattyr.o)
 .debug_info    0x000000000001cdb7      0x91a c:/altera/15.0/nios2eds/bin/gnu/h-x86_64-mingw32/bin/../lib/gcc/nios2-elf/4.9.1/../../../../../H-x86_64-mingw32/nios2-elf/lib\libc.a(lib_a-lseekr.o)
 .debug_info    0x000000000001d6d1      0x91a c:/altera/15.0/nios2eds/bin/gnu/h-x86_64-mingw32/bin/../lib/gcc/nios2-elf/4.9.1/../../../../../H-x86_64-mingw32/nios2-elf/lib\libc.a(lib_a-readr.o)
 .debug_info    0x000000000001dfeb      0x9b2 c:/altera/15.0/nios2eds/bin/gnu/h-x86_64-mingw32/bin/../lib/gcc/nios2-elf/4.9.1/../../../../../H-x86_64-mingw32/nios2-elf/lib\libc.a(lib_a-wbuf.o)
 .debug_info    0x000000000001e99d      0xa52 c:/altera/15.0/nios2eds/bin/gnu/h-x86_64-mingw32/bin/../lib/gcc/nios2-elf/4.9.1/../../../../../H-x86_64-mingw32/nios2-elf/lib\libc.a(lib_a-wcrtomb.o)
 .debug_info    0x000000000001f3ef      0x99a c:/altera/15.0/nios2eds/bin/gnu/h-x86_64-mingw32/bin/../lib/gcc/nios2-elf/4.9.1/../../../../../H-x86_64-mingw32/nios2-elf/lib\libc.a(lib_a-wctomb_r.o)
 .debug_info    0x000000000001fd89      0x70c c:/altera/15.0/nios2eds/bin/gnu/h-x86_64-mingw32/bin/../lib/gcc/nios2-elf/4.9.1\libgcc.a(_udivdi3.o)
 .debug_info    0x0000000000020495      0x765 c:/altera/15.0/nios2eds/bin/gnu/h-x86_64-mingw32/bin/../lib/gcc/nios2-elf/4.9.1\libgcc.a(_umoddi3.o)
 .debug_info    0x0000000000020bfa      0x1e2 c:/altera/15.0/nios2eds/bin/gnu/h-x86_64-mingw32/bin/../lib/gcc/nios2-elf/4.9.1\libgcc.a(eqdf2.o)
 .debug_info    0x0000000000020ddc      0x202 c:/altera/15.0/nios2eds/bin/gnu/h-x86_64-mingw32/bin/../lib/gcc/nios2-elf/4.9.1\libgcc.a(gedf2.o)
 .debug_info    0x0000000000020fde      0x1af c:/altera/15.0/nios2eds/bin/gnu/h-x86_64-mingw32/bin/../lib/gcc/nios2-elf/4.9.1\libgcc.a(floatunsidf.o)
 .debug_info    0x000000000002118d      0x2c5 ../LT24_final_sw_bsp/\libucosii_bsp.a(alt_alarm_start.o)
 .debug_info    0x0000000000021452      0x34e ../LT24_final_sw_bsp/\libucosii_bsp.a(alt_close.o)
 .debug_info    0x00000000000217a0      0x57e ../LT24_final_sw_bsp/\libucosii_bsp.a(alt_dev.o)
 .debug_info    0x0000000000021d1e       0x9f ../LT24_final_sw_bsp/\libucosii_bsp.a(alt_errno.o)
 .debug_info    0x0000000000021dbd      0x4b5 ../LT24_final_sw_bsp/\libucosii_bsp.a(alt_fstat.o)
 .debug_info    0x0000000000022272      0x349 ../LT24_final_sw_bsp/\libucosii_bsp.a(alt_iic.o)
 .debug_info    0x00000000000225bb      0x1e8 ../LT24_final_sw_bsp/\libucosii_bsp.a(alt_iic_isr_register.o)
 .debug_info    0x00000000000227a3       0x78 ../LT24_final_sw_bsp/\libucosii_bsp.a(alt_irq_entry.o)
 .debug_info    0x000000000002281b      0x1a9 ../LT24_final_sw_bsp/\libucosii_bsp.a(alt_irq_handler.o)
 .debug_info    0x00000000000229c4       0x88 ../LT24_final_sw_bsp/\libucosii_bsp.a(alt_irq_vars.o)
 .debug_info    0x0000000000022a4c      0x4b8 ../LT24_final_sw_bsp/\libucosii_bsp.a(alt_isatty.o)
 .debug_info    0x0000000000022f04      0x13e ../LT24_final_sw_bsp/\libucosii_bsp.a(alt_load.o)
 .debug_info    0x0000000000023042      0x37f ../LT24_final_sw_bsp/\libucosii_bsp.a(alt_lseek.o)
 .debug_info    0x00000000000233c1      0x266 ../LT24_final_sw_bsp/\libucosii_bsp.a(alt_main.o)
 .debug_info    0x0000000000023627      0x4dd ../LT24_final_sw_bsp/\libucosii_bsp.a(alt_read.o)
 .debug_info    0x0000000000023b04      0x2f2 ../LT24_final_sw_bsp/\libucosii_bsp.a(alt_release_fd.o)
 .debug_info    0x0000000000023df6      0x1a5 ../LT24_final_sw_bsp/\libucosii_bsp.a(alt_sbrk.o)
 .debug_info    0x0000000000023f9b      0x2a0 ../LT24_final_sw_bsp/\libucosii_bsp.a(alt_tick.o)
 .debug_info    0x000000000002423b      0x13a ../LT24_final_sw_bsp/\libucosii_bsp.a(alt_usleep.o)
 .debug_info    0x0000000000024375      0x4e4 ../LT24_final_sw_bsp/\libucosii_bsp.a(alt_write.o)
 .debug_info    0x0000000000024859      0xc50 ../LT24_final_sw_bsp/\libucosii_bsp.a(alt_env_lock.o)
 .debug_info    0x00000000000254a9      0xd96 ../LT24_final_sw_bsp/\libucosii_bsp.a(alt_malloc_lock.o)
 .debug_info    0x000000000002623f     0x1606 ../LT24_final_sw_bsp/\libucosii_bsp.a(os_core.o)
 .debug_info    0x0000000000027845      0xaa1 ../LT24_final_sw_bsp/\libucosii_bsp.a(os_dbg.o)
 .debug_info    0x00000000000282e6      0xf95 ../LT24_final_sw_bsp/\libucosii_bsp.a(os_flag.o)
 .debug_info    0x000000000002927b      0xa5d ../LT24_final_sw_bsp/\libucosii_bsp.a(os_mbox.o)
 .debug_info    0x0000000000029cd8      0x673 ../LT24_final_sw_bsp/\libucosii_bsp.a(os_mem.o)
 .debug_info    0x000000000002a34b      0xaad ../LT24_final_sw_bsp/\libucosii_bsp.a(os_mutex.o)
 .debug_info    0x000000000002adf8      0xd9c ../LT24_final_sw_bsp/\libucosii_bsp.a(os_q.o)
 .debug_info    0x000000000002bb94      0x9fd ../LT24_final_sw_bsp/\libucosii_bsp.a(os_sem.o)
 .debug_info    0x000000000002c591     0x1110 ../LT24_final_sw_bsp/\libucosii_bsp.a(os_task.o)
 .debug_info    0x000000000002d6a1      0x6e2 ../LT24_final_sw_bsp/\libucosii_bsp.a(os_time.o)
 .debug_info    0x000000000002dd83      0x61f ../LT24_final_sw_bsp/\libucosii_bsp.a(alt_sys_init.o)
 .debug_info    0x000000000002e3a2      0x674 ../LT24_final_sw_bsp/\libucosii_bsp.a(altera_avalon_jtag_uart_fd.o)
 .debug_info    0x000000000002ea16      0x6b4 ../LT24_final_sw_bsp/\libucosii_bsp.a(altera_avalon_jtag_uart_init.o)
 .debug_info    0x000000000002f0ca      0x3c6 ../LT24_final_sw_bsp/\libucosii_bsp.a(altera_avalon_jtag_uart_ioctl.o)
 .debug_info    0x000000000002f490      0x578 ../LT24_final_sw_bsp/\libucosii_bsp.a(altera_avalon_jtag_uart_read.o)
 .debug_info    0x000000000002fa08      0x572 ../LT24_final_sw_bsp/\libucosii_bsp.a(altera_avalon_jtag_uart_write.o)
 .debug_info    0x000000000002ff7a      0x186 ../LT24_final_sw_bsp/\libucosii_bsp.a(altera_avalon_spi.o)
 .debug_info    0x0000000000030100      0x21f ../LT24_final_sw_bsp/\libucosii_bsp.a(altera_avalon_timer_sc.o)
 .debug_info    0x000000000003031f       0xd0 ../LT24_final_sw_bsp/\libucosii_bsp.a(alt_busy_sleep.o)
 .debug_info    0x00000000000303ef       0x9e ../LT24_final_sw_bsp/\libucosii_bsp.a(alt_dcache_flush_all.o)
 .debug_info    0x000000000003048d      0x1a2 ../LT24_final_sw_bsp/\libucosii_bsp.a(alt_dev_llist_insert.o)
 .debug_info    0x000000000003062f       0x83 ../LT24_final_sw_bsp/\libucosii_bsp.a(alt_do_ctors.o)
 .debug_info    0x00000000000306b2       0x83 ../LT24_final_sw_bsp/\libucosii_bsp.a(alt_do_dtors.o)
 .debug_info    0x0000000000030735       0x7e ../LT24_final_sw_bsp/\libucosii_bsp.a(alt_exception_entry.o)
 .debug_info    0x00000000000307b3       0x8b ../LT24_final_sw_bsp/\libucosii_bsp.a(alt_icache_flush_all.o)
 .debug_info    0x000000000003083e      0x4d2 ../LT24_final_sw_bsp/\libucosii_bsp.a(alt_io_redirect.o)
 .debug_info    0x0000000000030d10      0x3dd ../LT24_final_sw_bsp/\libucosii_bsp.a(alt_open.o)
 .debug_info    0x00000000000310ed       0x8b ../LT24_final_sw_bsp/\libucosii_bsp.a(altera_nios2_qsys_irq.o)
 .debug_info    0x0000000000031178       0x77 ../LT24_final_sw_bsp/\libucosii_bsp.a(os_cpu_a.o)
 .debug_info    0x00000000000311ef      0xcd3 ../LT24_final_sw_bsp/\libucosii_bsp.a(os_cpu_c.o)
 .debug_info    0x0000000000031ec2      0x316 ../LT24_final_sw_bsp/\libucosii_bsp.a(alt_find_dev.o)
 .debug_info    0x00000000000321d8      0x313 ../LT24_final_sw_bsp/\libucosii_bsp.a(alt_find_file.o)
 .debug_info    0x00000000000324eb      0x444 ../LT24_final_sw_bsp/\libucosii_bsp.a(alt_get_fd.o)
 .debug_info    0x000000000003292f       0xd5 ../LT24_final_sw_bsp/\libucosii_bsp.a(alt_icache_flush.o)
 .debug_info    0x0000000000032a04      0x10a c:/altera/15.0/nios2eds/bin/gnu/h-x86_64-mingw32/bin/../lib/gcc/nios2-elf/4.9.1/../../../../../H-x86_64-mingw32/nios2-elf/lib\libc.a(lib_a-atexit.o)
 .debug_info    0x0000000000032b0e      0x8df c:/altera/15.0/nios2eds/bin/gnu/h-x86_64-mingw32/bin/../lib/gcc/nios2-elf/4.9.1/../../../../../H-x86_64-mingw32/nios2-elf/lib\libc.a(lib_a-exit.o)
 .debug_info    0x00000000000333ed      0x113 c:/altera/15.0/nios2eds/bin/gnu/h-x86_64-mingw32/bin/../lib/gcc/nios2-elf/4.9.1/../../../../../H-x86_64-mingw32/nios2-elf/lib\libc.a(lib_a-memcmp.o)
 .debug_info    0x0000000000033500      0x93b c:/altera/15.0/nios2eds/bin/gnu/h-x86_64-mingw32/bin/../lib/gcc/nios2-elf/4.9.1/../../../../../H-x86_64-mingw32/nios2-elf/lib\libc.a(lib_a-__atexit.o)
 .debug_info    0x0000000000033e3b      0x948 c:/altera/15.0/nios2eds/bin/gnu/h-x86_64-mingw32/bin/../lib/gcc/nios2-elf/4.9.1/../../../../../H-x86_64-mingw32/nios2-elf/lib\libc.a(lib_a-__call_atexit.o)
 .debug_info    0x0000000000034783      0x134 ../LT24_final_sw_bsp/\libucosii_bsp.a(alt_exit.o)

.debug_abbrev   0x0000000000000000     0xc280
 *(.debug_abbrev)
 .debug_abbrev  0x0000000000000000       0x12 ../LT24_final_sw_bsp//obj/HAL/src/crt0.o
 .debug_abbrev  0x0000000000000012      0x153 obj/default/demo/gui.o
 .debug_abbrev  0x0000000000000165       0x93 obj/default/fonts/tahomabold_20.o
 .debug_abbrev  0x00000000000001f8       0x93 obj/default/fonts/tahomabold_32.o
 .debug_abbrev  0x000000000000028b      0x124 obj/default/graphic_lib/ILI9341.o
 .debug_abbrev  0x00000000000003af      0x120 obj/default/graphic_lib/geometry.o
 .debug_abbrev  0x00000000000004cf      0x1f4 obj/default/graphic_lib/simple_graphics.o
 .debug_abbrev  0x00000000000006c3      0x15c obj/default/graphic_lib/simple_text.o
 .debug_abbrev  0x000000000000081f      0x1b1 obj/default/main.o
 .debug_abbrev  0x00000000000009d0       0xf1 obj/default/terasic_lib/accelerometer_adxl345_spi.o
 .debug_abbrev  0x0000000000000ac1       0xf6 obj/default/terasic_lib/terasic_spi.o
 .debug_abbrev  0x0000000000000bb7      0x1fe obj/default/terasic_lib/touch_spi.o
 .debug_abbrev  0x0000000000000db5      0x13a c:/altera/15.0/nios2eds/bin/gnu/h-x86_64-mingw32/bin/../lib/gcc/nios2-elf/4.9.1/../../../../../H-x86_64-mingw32/nios2-elf/lib\libm.a(lib_a-w_sqrt.o)
 .debug_abbrev  0x0000000000000eef       0xa5 c:/altera/15.0/nios2eds/bin/gnu/h-x86_64-mingw32/bin/../lib/gcc/nios2-elf/4.9.1/../../../../../H-x86_64-mingw32/nios2-elf/lib\libm.a(lib_a-e_sqrt.o)
 .debug_abbrev  0x0000000000000f94       0x7e c:/altera/15.0/nios2eds/bin/gnu/h-x86_64-mingw32/bin/../lib/gcc/nios2-elf/4.9.1/../../../../../H-x86_64-mingw32/nios2-elf/lib\libm.a(lib_a-s_fpclassify.o)
 .debug_abbrev  0x0000000000001012       0x4f c:/altera/15.0/nios2eds/bin/gnu/h-x86_64-mingw32/bin/../lib/gcc/nios2-elf/4.9.1/../../../../../H-x86_64-mingw32/nios2-elf/lib\libm.a(lib_a-s_lib_ver.o)
 .debug_abbrev  0x0000000000001061       0x9a c:/altera/15.0/nios2eds/bin/gnu/h-x86_64-mingw32/bin/../lib/gcc/nios2-elf/4.9.1/../../../../../H-x86_64-mingw32/nios2-elf/lib\libm.a(lib_a-s_matherr.o)
 .debug_abbrev  0x00000000000010fb       0xd9 c:/altera/15.0/nios2eds/bin/gnu/h-x86_64-mingw32/bin/../lib/gcc/nios2-elf/4.9.1\libgcc.a(lib2-divmod.o)
 .debug_abbrev  0x00000000000011d4      0x13a c:/altera/15.0/nios2eds/bin/gnu/h-x86_64-mingw32/bin/../lib/gcc/nios2-elf/4.9.1\libgcc.a(adddf3.o)
 .debug_abbrev  0x000000000000130e      0x120 c:/altera/15.0/nios2eds/bin/gnu/h-x86_64-mingw32/bin/../lib/gcc/nios2-elf/4.9.1\libgcc.a(divdf3.o)
 .debug_abbrev  0x000000000000142e      0x137 c:/altera/15.0/nios2eds/bin/gnu/h-x86_64-mingw32/bin/../lib/gcc/nios2-elf/4.9.1\libgcc.a(ledf2.o)
 .debug_abbrev  0x0000000000001565      0x132 c:/altera/15.0/nios2eds/bin/gnu/h-x86_64-mingw32/bin/../lib/gcc/nios2-elf/4.9.1\libgcc.a(muldf3.o)
 .debug_abbrev  0x0000000000001697      0x133 c:/altera/15.0/nios2eds/bin/gnu/h-x86_64-mingw32/bin/../lib/gcc/nios2-elf/4.9.1\libgcc.a(subdf3.o)
 .debug_abbrev  0x00000000000017ca      0x119 c:/altera/15.0/nios2eds/bin/gnu/h-x86_64-mingw32/bin/../lib/gcc/nios2-elf/4.9.1\libgcc.a(fixdfsi.o)
 .debug_abbrev  0x00000000000018e3      0x11e c:/altera/15.0/nios2eds/bin/gnu/h-x86_64-mingw32/bin/../lib/gcc/nios2-elf/4.9.1\libgcc.a(floatsidf.o)
 .debug_abbrev  0x0000000000001a01       0xbe c:/altera/15.0/nios2eds/bin/gnu/h-x86_64-mingw32/bin/../lib/gcc/nios2-elf/4.9.1\libgcc.a(_clzsi2.o)
 .debug_abbrev  0x0000000000001abf       0x5d c:/altera/15.0/nios2eds/bin/gnu/h-x86_64-mingw32/bin/../lib/gcc/nios2-elf/4.9.1\libgcc.a(_clz.o)
 .debug_abbrev  0x0000000000001b1c      0x18f c:/altera/15.0/nios2eds/bin/gnu/h-x86_64-mingw32/bin/../lib/gcc/nios2-elf/4.9.1/../../../../../H-x86_64-mingw32/nios2-elf/lib\libc.a(lib_a-errno.o)
 .debug_abbrev  0x0000000000001cab      0x180 c:/altera/15.0/nios2eds/bin/gnu/h-x86_64-mingw32/bin/../lib/gcc/nios2-elf/4.9.1/../../../../../H-x86_64-mingw32/nios2-elf/lib\libc.a(lib_a-impure.o)
 .debug_abbrev  0x0000000000001e2b      0x1fa c:/altera/15.0/nios2eds/bin/gnu/h-x86_64-mingw32/bin/../lib/gcc/nios2-elf/4.9.1/../../../../../H-x86_64-mingw32/nios2-elf/lib\libc.a(lib_a-malloc.o)
 .debug_abbrev  0x0000000000002025      0x2ad c:/altera/15.0/nios2eds/bin/gnu/h-x86_64-mingw32/bin/../lib/gcc/nios2-elf/4.9.1/../../../../../H-x86_64-mingw32/nios2-elf/lib\libc.a(lib_a-mallocr.o)
 .debug_abbrev  0x00000000000022d2       0x9c c:/altera/15.0/nios2eds/bin/gnu/h-x86_64-mingw32/bin/../lib/gcc/nios2-elf/4.9.1/../../../../../H-x86_64-mingw32/nios2-elf/lib\libc.a(lib_a-memcpy.o)
 .debug_abbrev  0x000000000000236e       0xae c:/altera/15.0/nios2eds/bin/gnu/h-x86_64-mingw32/bin/../lib/gcc/nios2-elf/4.9.1/../../../../../H-x86_64-mingw32/nios2-elf/lib\libc.a(lib_a-memset.o)
 .debug_abbrev  0x000000000000241c      0x234 c:/altera/15.0/nios2eds/bin/gnu/h-x86_64-mingw32/bin/../lib/gcc/nios2-elf/4.9.1/../../../../../H-x86_64-mingw32/nios2-elf/lib\libc.a(lib_a-printf.o)
 .debug_abbrev  0x0000000000002650      0x226 c:/altera/15.0/nios2eds/bin/gnu/h-x86_64-mingw32/bin/../lib/gcc/nios2-elf/4.9.1/../../../../../H-x86_64-mingw32/nios2-elf/lib\libc.a(lib_a-puts.o)
 .debug_abbrev  0x0000000000002876      0x1fd c:/altera/15.0/nios2eds/bin/gnu/h-x86_64-mingw32/bin/../lib/gcc/nios2-elf/4.9.1/../../../../../H-x86_64-mingw32/nios2-elf/lib\libc.a(lib_a-sbrkr.o)
 .debug_abbrev  0x0000000000002a73       0x83 c:/altera/15.0/nios2eds/bin/gnu/h-x86_64-mingw32/bin/../lib/gcc/nios2-elf/4.9.1/../../../../../H-x86_64-mingw32/nios2-elf/lib\libc.a(lib_a-strcpy.o)
 .debug_abbrev  0x0000000000002af6       0x90 c:/altera/15.0/nios2eds/bin/gnu/h-x86_64-mingw32/bin/../lib/gcc/nios2-elf/4.9.1/../../../../../H-x86_64-mingw32/nios2-elf/lib\libc.a(lib_a-strlen.o)
 .debug_abbrev  0x0000000000002b86      0x3c2 c:/altera/15.0/nios2eds/bin/gnu/h-x86_64-mingw32/bin/../lib/gcc/nios2-elf/4.9.1/../../../../../H-x86_64-mingw32/nios2-elf/lib\libc.a(lib_a-vfprintf.o)
 .debug_abbrev  0x0000000000002f48      0x1f3 c:/altera/15.0/nios2eds/bin/gnu/h-x86_64-mingw32/bin/../lib/gcc/nios2-elf/4.9.1/../../../../../H-x86_64-mingw32/nios2-elf/lib\libc.a(lib_a-wsetup.o)
 .debug_abbrev  0x000000000000313b      0x2c9 c:/altera/15.0/nios2eds/bin/gnu/h-x86_64-mingw32/bin/../lib/gcc/nios2-elf/4.9.1/../../../../../H-x86_64-mingw32/nios2-elf/lib\libc.a(lib_a-dtoa.o)
 .debug_abbrev  0x0000000000003404      0x275 c:/altera/15.0/nios2eds/bin/gnu/h-x86_64-mingw32/bin/../lib/gcc/nios2-elf/4.9.1/../../../../../H-x86_64-mingw32/nios2-elf/lib\libc.a(lib_a-fflush.o)
 .debug_abbrev  0x0000000000003679      0x36b c:/altera/15.0/nios2eds/bin/gnu/h-x86_64-mingw32/bin/../lib/gcc/nios2-elf/4.9.1/../../../../../H-x86_64-mingw32/nios2-elf/lib\libc.a(lib_a-findfp.o)
 .debug_abbrev  0x00000000000039e4      0x27b c:/altera/15.0/nios2eds/bin/gnu/h-x86_64-mingw32/bin/../lib/gcc/nios2-elf/4.9.1/../../../../../H-x86_64-mingw32/nios2-elf/lib\libc.a(lib_a-freer.o)
 .debug_abbrev  0x0000000000003c5f      0x252 c:/altera/15.0/nios2eds/bin/gnu/h-x86_64-mingw32/bin/../lib/gcc/nios2-elf/4.9.1/../../../../../H-x86_64-mingw32/nios2-elf/lib\libc.a(lib_a-fvwrite.o)
 .debug_abbrev  0x0000000000003eb1      0x242 c:/altera/15.0/nios2eds/bin/gnu/h-x86_64-mingw32/bin/../lib/gcc/nios2-elf/4.9.1/../../../../../H-x86_64-mingw32/nios2-elf/lib\libc.a(lib_a-fwalk.o)
 .debug_abbrev  0x00000000000040f3       0x37 c:/altera/15.0/nios2eds/bin/gnu/h-x86_64-mingw32/bin/../lib/gcc/nios2-elf/4.9.1/../../../../../H-x86_64-mingw32/nios2-elf/lib\libc.a(lib_a-int_errno.o)
 .debug_abbrev  0x000000000000412a      0x2b3 c:/altera/15.0/nios2eds/bin/gnu/h-x86_64-mingw32/bin/../lib/gcc/nios2-elf/4.9.1/../../../../../H-x86_64-mingw32/nios2-elf/lib\libc.a(lib_a-locale.o)
 .debug_abbrev  0x00000000000043dd      0x206 c:/altera/15.0/nios2eds/bin/gnu/h-x86_64-mingw32/bin/../lib/gcc/nios2-elf/4.9.1/../../../../../H-x86_64-mingw32/nios2-elf/lib\libc.a(lib_a-makebuf.o)
 .debug_abbrev  0x00000000000045e3       0xab c:/altera/15.0/nios2eds/bin/gnu/h-x86_64-mingw32/bin/../lib/gcc/nios2-elf/4.9.1/../../../../../H-x86_64-mingw32/nios2-elf/lib\libc.a(lib_a-memchr.o)
 .debug_abbrev  0x000000000000468e       0x9c c:/altera/15.0/nios2eds/bin/gnu/h-x86_64-mingw32/bin/../lib/gcc/nios2-elf/4.9.1/../../../../../H-x86_64-mingw32/nios2-elf/lib\libc.a(lib_a-memmove.o)
 .debug_abbrev  0x000000000000472a      0x3c2 c:/altera/15.0/nios2eds/bin/gnu/h-x86_64-mingw32/bin/../lib/gcc/nios2-elf/4.9.1/../../../../../H-x86_64-mingw32/nios2-elf/lib\libc.a(lib_a-mprec.o)
 .debug_abbrev  0x0000000000004aec      0x269 c:/altera/15.0/nios2eds/bin/gnu/h-x86_64-mingw32/bin/../lib/gcc/nios2-elf/4.9.1/../../../../../H-x86_64-mingw32/nios2-elf/lib\libc.a(lib_a-reallocr.o)
 .debug_abbrev  0x0000000000004d55      0x246 c:/altera/15.0/nios2eds/bin/gnu/h-x86_64-mingw32/bin/../lib/gcc/nios2-elf/4.9.1/../../../../../H-x86_64-mingw32/nios2-elf/lib\libc.a(lib_a-stdio.o)
 .debug_abbrev  0x0000000000004f9b       0x74 c:/altera/15.0/nios2eds/bin/gnu/h-x86_64-mingw32/bin/../lib/gcc/nios2-elf/4.9.1/../../../../../H-x86_64-mingw32/nios2-elf/lib\libc.a(lib_a-strcmp.o)
 .debug_abbrev  0x000000000000500f      0x3f8 c:/altera/15.0/nios2eds/bin/gnu/h-x86_64-mingw32/bin/../lib/gcc/nios2-elf/4.9.1/../../../../../H-x86_64-mingw32/nios2-elf/lib\libc.a(lib_a-vfiprintf.o)
 .debug_abbrev  0x0000000000005407      0x1de c:/altera/15.0/nios2eds/bin/gnu/h-x86_64-mingw32/bin/../lib/gcc/nios2-elf/4.9.1/../../../../../H-x86_64-mingw32/nios2-elf/lib\libc.a(lib_a-writer.o)
 .debug_abbrev  0x00000000000055e5      0x1d9 c:/altera/15.0/nios2eds/bin/gnu/h-x86_64-mingw32/bin/../lib/gcc/nios2-elf/4.9.1/../../../../../H-x86_64-mingw32/nios2-elf/lib\libc.a(closer.o)
 .debug_abbrev  0x00000000000057be      0x213 c:/altera/15.0/nios2eds/bin/gnu/h-x86_64-mingw32/bin/../lib/gcc/nios2-elf/4.9.1/../../../../../H-x86_64-mingw32/nios2-elf/lib\libc.a(lib_a-callocr.o)
 .debug_abbrev  0x00000000000059d1      0x2a9 c:/altera/15.0/nios2eds/bin/gnu/h-x86_64-mingw32/bin/../lib/gcc/nios2-elf/4.9.1/../../../../../H-x86_64-mingw32/nios2-elf/lib\libc.a(lib_a-fclose.o)
 .debug_abbrev  0x0000000000005c7a      0x289 c:/altera/15.0/nios2eds/bin/gnu/h-x86_64-mingw32/bin/../lib/gcc/nios2-elf/4.9.1/../../../../../H-x86_64-mingw32/nios2-elf/lib\libc.a(lib_a-fputwc.o)
 .debug_abbrev  0x0000000000005f03      0x1e8 c:/altera/15.0/nios2eds/bin/gnu/h-x86_64-mingw32/bin/../lib/gcc/nios2-elf/4.9.1/../../../../../H-x86_64-mingw32/nios2-elf/lib\libc.a(lib_a-fstatr.o)
 .debug_abbrev  0x00000000000060eb      0x1d9 c:/altera/15.0/nios2eds/bin/gnu/h-x86_64-mingw32/bin/../lib/gcc/nios2-elf/4.9.1/../../../../../H-x86_64-mingw32/nios2-elf/lib\libc.a(lib_a-isattyr.o)
 .debug_abbrev  0x00000000000062c4      0x1e8 c:/altera/15.0/nios2eds/bin/gnu/h-x86_64-mingw32/bin/../lib/gcc/nios2-elf/4.9.1/../../../../../H-x86_64-mingw32/nios2-elf/lib\libc.a(lib_a-lseekr.o)
 .debug_abbrev  0x00000000000064ac      0x1d9 c:/altera/15.0/nios2eds/bin/gnu/h-x86_64-mingw32/bin/../lib/gcc/nios2-elf/4.9.1/../../../../../H-x86_64-mingw32/nios2-elf/lib\libc.a(lib_a-readr.o)
 .debug_abbrev  0x0000000000006685      0x238 c:/altera/15.0/nios2eds/bin/gnu/h-x86_64-mingw32/bin/../lib/gcc/nios2-elf/4.9.1/../../../../../H-x86_64-mingw32/nios2-elf/lib\libc.a(lib_a-wbuf.o)
 .debug_abbrev  0x00000000000068bd      0x21c c:/altera/15.0/nios2eds/bin/gnu/h-x86_64-mingw32/bin/../lib/gcc/nios2-elf/4.9.1/../../../../../H-x86_64-mingw32/nios2-elf/lib\libc.a(lib_a-wcrtomb.o)
 .debug_abbrev  0x0000000000006ad9      0x212 c:/altera/15.0/nios2eds/bin/gnu/h-x86_64-mingw32/bin/../lib/gcc/nios2-elf/4.9.1/../../../../../H-x86_64-mingw32/nios2-elf/lib\libc.a(lib_a-wctomb_r.o)
 .debug_abbrev  0x0000000000006ceb      0x170 c:/altera/15.0/nios2eds/bin/gnu/h-x86_64-mingw32/bin/../lib/gcc/nios2-elf/4.9.1\libgcc.a(_udivdi3.o)
 .debug_abbrev  0x0000000000006e5b      0x193 c:/altera/15.0/nios2eds/bin/gnu/h-x86_64-mingw32/bin/../lib/gcc/nios2-elf/4.9.1\libgcc.a(_umoddi3.o)
 .debug_abbrev  0x0000000000006fee      0x128 c:/altera/15.0/nios2eds/bin/gnu/h-x86_64-mingw32/bin/../lib/gcc/nios2-elf/4.9.1\libgcc.a(eqdf2.o)
 .debug_abbrev  0x0000000000007116      0x137 c:/altera/15.0/nios2eds/bin/gnu/h-x86_64-mingw32/bin/../lib/gcc/nios2-elf/4.9.1\libgcc.a(gedf2.o)
 .debug_abbrev  0x000000000000724d      0x117 c:/altera/15.0/nios2eds/bin/gnu/h-x86_64-mingw32/bin/../lib/gcc/nios2-elf/4.9.1\libgcc.a(floatunsidf.o)
 .debug_abbrev  0x0000000000007364      0x162 ../LT24_final_sw_bsp/\libucosii_bsp.a(alt_alarm_start.o)
 .debug_abbrev  0x00000000000074c6      0x126 ../LT24_final_sw_bsp/\libucosii_bsp.a(alt_close.o)
 .debug_abbrev  0x00000000000075ec      0x11c ../LT24_final_sw_bsp/\libucosii_bsp.a(alt_dev.o)
 .debug_abbrev  0x0000000000007708       0x5a ../LT24_final_sw_bsp/\libucosii_bsp.a(alt_errno.o)
 .debug_abbrev  0x0000000000007762      0x126 ../LT24_final_sw_bsp/\libucosii_bsp.a(alt_fstat.o)
 .debug_abbrev  0x0000000000007888      0x163 ../LT24_final_sw_bsp/\libucosii_bsp.a(alt_iic.o)
 .debug_abbrev  0x00000000000079eb      0x169 ../LT24_final_sw_bsp/\libucosii_bsp.a(alt_iic_isr_register.o)
 .debug_abbrev  0x0000000000007b54       0x12 ../LT24_final_sw_bsp/\libucosii_bsp.a(alt_irq_entry.o)
 .debug_abbrev  0x0000000000007b66      0x13a ../LT24_final_sw_bsp/\libucosii_bsp.a(alt_irq_handler.o)
 .debug_abbrev  0x0000000000007ca0       0x40 ../LT24_final_sw_bsp/\libucosii_bsp.a(alt_irq_vars.o)
 .debug_abbrev  0x0000000000007ce0      0x126 ../LT24_final_sw_bsp/\libucosii_bsp.a(alt_isatty.o)
 .debug_abbrev  0x0000000000007e06       0x9f ../LT24_final_sw_bsp/\libucosii_bsp.a(alt_load.o)
 .debug_abbrev  0x0000000000007ea5      0x126 ../LT24_final_sw_bsp/\libucosii_bsp.a(alt_lseek.o)
 .debug_abbrev  0x0000000000007fcb      0x139 ../LT24_final_sw_bsp/\libucosii_bsp.a(alt_main.o)
 .debug_abbrev  0x0000000000008104      0x135 ../LT24_final_sw_bsp/\libucosii_bsp.a(alt_read.o)
 .debug_abbrev  0x0000000000008239       0xe5 ../LT24_final_sw_bsp/\libucosii_bsp.a(alt_release_fd.o)
 .debug_abbrev  0x000000000000831e      0x112 ../LT24_final_sw_bsp/\libucosii_bsp.a(alt_sbrk.o)
 .debug_abbrev  0x0000000000008430      0x15a ../LT24_final_sw_bsp/\libucosii_bsp.a(alt_tick.o)
 .debug_abbrev  0x000000000000858a       0xc7 ../LT24_final_sw_bsp/\libucosii_bsp.a(alt_usleep.o)
 .debug_abbrev  0x0000000000008651      0x13a ../LT24_final_sw_bsp/\libucosii_bsp.a(alt_write.o)
 .debug_abbrev  0x000000000000878b      0x1d4 ../LT24_final_sw_bsp/\libucosii_bsp.a(alt_env_lock.o)
 .debug_abbrev  0x000000000000895f      0x25e ../LT24_final_sw_bsp/\libucosii_bsp.a(alt_malloc_lock.o)
 .debug_abbrev  0x0000000000008bbd      0x302 ../LT24_final_sw_bsp/\libucosii_bsp.a(os_core.o)
 .debug_abbrev  0x0000000000008ebf       0xf7 ../LT24_final_sw_bsp/\libucosii_bsp.a(os_dbg.o)
 .debug_abbrev  0x0000000000008fb6      0x25a ../LT24_final_sw_bsp/\libucosii_bsp.a(os_flag.o)
 .debug_abbrev  0x0000000000009210      0x21f ../LT24_final_sw_bsp/\libucosii_bsp.a(os_mbox.o)
 .debug_abbrev  0x000000000000942f      0x228 ../LT24_final_sw_bsp/\libucosii_bsp.a(os_mem.o)
 .debug_abbrev  0x0000000000009657      0x251 ../LT24_final_sw_bsp/\libucosii_bsp.a(os_mutex.o)
 .debug_abbrev  0x00000000000098a8      0x248 ../LT24_final_sw_bsp/\libucosii_bsp.a(os_q.o)
 .debug_abbrev  0x0000000000009af0      0x262 ../LT24_final_sw_bsp/\libucosii_bsp.a(os_sem.o)
 .debug_abbrev  0x0000000000009d52      0x247 ../LT24_final_sw_bsp/\libucosii_bsp.a(os_task.o)
 .debug_abbrev  0x0000000000009f99      0x20c ../LT24_final_sw_bsp/\libucosii_bsp.a(os_time.o)
 .debug_abbrev  0x000000000000a1a5      0x1cc ../LT24_final_sw_bsp/\libucosii_bsp.a(alt_sys_init.o)
 .debug_abbrev  0x000000000000a371      0x16c ../LT24_final_sw_bsp/\libucosii_bsp.a(altera_avalon_jtag_uart_fd.o)
 .debug_abbrev  0x000000000000a4dd      0x248 ../LT24_final_sw_bsp/\libucosii_bsp.a(altera_avalon_jtag_uart_init.o)
 .debug_abbrev  0x000000000000a725      0x156 ../LT24_final_sw_bsp/\libucosii_bsp.a(altera_avalon_jtag_uart_ioctl.o)
 .debug_abbrev  0x000000000000a87b      0x1fa ../LT24_final_sw_bsp/\libucosii_bsp.a(altera_avalon_jtag_uart_read.o)
 .debug_abbrev  0x000000000000aa75      0x1f6 ../LT24_final_sw_bsp/\libucosii_bsp.a(altera_avalon_jtag_uart_write.o)
 .debug_abbrev  0x000000000000ac6b       0x8a ../LT24_final_sw_bsp/\libucosii_bsp.a(altera_avalon_spi.o)
 .debug_abbrev  0x000000000000acf5      0x155 ../LT24_final_sw_bsp/\libucosii_bsp.a(altera_avalon_timer_sc.o)
 .debug_abbrev  0x000000000000ae4a       0x7e ../LT24_final_sw_bsp/\libucosii_bsp.a(alt_busy_sleep.o)
 .debug_abbrev  0x000000000000aec8       0x5a ../LT24_final_sw_bsp/\libucosii_bsp.a(alt_dcache_flush_all.o)
 .debug_abbrev  0x000000000000af22      0x114 ../LT24_final_sw_bsp/\libucosii_bsp.a(alt_dev_llist_insert.o)
 .debug_abbrev  0x000000000000b036       0x79 ../LT24_final_sw_bsp/\libucosii_bsp.a(alt_do_ctors.o)
 .debug_abbrev  0x000000000000b0af       0x79 ../LT24_final_sw_bsp/\libucosii_bsp.a(alt_do_dtors.o)
 .debug_abbrev  0x000000000000b128       0x12 ../LT24_final_sw_bsp/\libucosii_bsp.a(alt_exception_entry.o)
 .debug_abbrev  0x000000000000b13a       0x42 ../LT24_final_sw_bsp/\libucosii_bsp.a(alt_icache_flush_all.o)
 .debug_abbrev  0x000000000000b17c      0x11b ../LT24_final_sw_bsp/\libucosii_bsp.a(alt_io_redirect.o)
 .debug_abbrev  0x000000000000b297      0x14f ../LT24_final_sw_bsp/\libucosii_bsp.a(alt_open.o)
 .debug_abbrev  0x000000000000b3e6       0x42 ../LT24_final_sw_bsp/\libucosii_bsp.a(altera_nios2_qsys_irq.o)
 .debug_abbrev  0x000000000000b428       0x14 ../LT24_final_sw_bsp/\libucosii_bsp.a(os_cpu_a.o)
 .debug_abbrev  0x000000000000b43c      0x206 ../LT24_final_sw_bsp/\libucosii_bsp.a(os_cpu_c.o)
 .debug_abbrev  0x000000000000b642       0xf7 ../LT24_final_sw_bsp/\libucosii_bsp.a(alt_find_dev.o)
 .debug_abbrev  0x000000000000b739       0xf7 ../LT24_final_sw_bsp/\libucosii_bsp.a(alt_find_file.o)
 .debug_abbrev  0x000000000000b830      0x19b ../LT24_final_sw_bsp/\libucosii_bsp.a(alt_get_fd.o)
 .debug_abbrev  0x000000000000b9cb       0x8c ../LT24_final_sw_bsp/\libucosii_bsp.a(alt_icache_flush.o)
 .debug_abbrev  0x000000000000ba57       0xb8 c:/altera/15.0/nios2eds/bin/gnu/h-x86_64-mingw32/bin/../lib/gcc/nios2-elf/4.9.1/../../../../../H-x86_64-mingw32/nios2-elf/lib\libc.a(lib_a-atexit.o)
 .debug_abbrev  0x000000000000bb0f      0x1e6 c:/altera/15.0/nios2eds/bin/gnu/h-x86_64-mingw32/bin/../lib/gcc/nios2-elf/4.9.1/../../../../../H-x86_64-mingw32/nios2-elf/lib\libc.a(lib_a-exit.o)
 .debug_abbrev  0x000000000000bcf5       0x7f c:/altera/15.0/nios2eds/bin/gnu/h-x86_64-mingw32/bin/../lib/gcc/nios2-elf/4.9.1/../../../../../H-x86_64-mingw32/nios2-elf/lib\libc.a(lib_a-memcmp.o)
 .debug_abbrev  0x000000000000bd74      0x21e c:/altera/15.0/nios2eds/bin/gnu/h-x86_64-mingw32/bin/../lib/gcc/nios2-elf/4.9.1/../../../../../H-x86_64-mingw32/nios2-elf/lib\libc.a(lib_a-__atexit.o)
 .debug_abbrev  0x000000000000bf92      0x210 c:/altera/15.0/nios2eds/bin/gnu/h-x86_64-mingw32/bin/../lib/gcc/nios2-elf/4.9.1/../../../../../H-x86_64-mingw32/nios2-elf/lib\libc.a(lib_a-__call_atexit.o)
 .debug_abbrev  0x000000000000c1a2       0xde ../LT24_final_sw_bsp/\libucosii_bsp.a(alt_exit.o)

.debug_line     0x0000000000000000     0xfa0c
 *(.debug_line)
 .debug_line    0x0000000000000000       0x72 ../LT24_final_sw_bsp//obj/HAL/src/crt0.o
 .debug_line    0x0000000000000072      0x238 obj/default/demo/gui.o
 .debug_line    0x00000000000002aa       0x36 obj/default/fonts/tahomabold_20.o
 .debug_line    0x00000000000002e0       0x36 obj/default/fonts/tahomabold_32.o
 .debug_line    0x0000000000000316      0x229 obj/default/graphic_lib/ILI9341.o
 .debug_line    0x000000000000053f      0x192 obj/default/graphic_lib/geometry.o
 .debug_line    0x00000000000006d1      0x5b3 obj/default/graphic_lib/simple_graphics.o
 .debug_line    0x0000000000000c84      0x26e obj/default/graphic_lib/simple_text.o
 .debug_line    0x0000000000000ef2      0x2ca obj/default/main.o
 .debug_line    0x00000000000011bc      0x183 obj/default/terasic_lib/accelerometer_adxl345_spi.o
 .debug_line    0x000000000000133f      0x194 obj/default/terasic_lib/terasic_spi.o
 .debug_line    0x00000000000014d3      0x228 obj/default/terasic_lib/touch_spi.o
 .debug_line    0x00000000000016fb      0x1b7 c:/altera/15.0/nios2eds/bin/gnu/h-x86_64-mingw32/bin/../lib/gcc/nios2-elf/4.9.1/../../../../../H-x86_64-mingw32/nios2-elf/lib\libm.a(lib_a-w_sqrt.o)
 .debug_line    0x00000000000018b2      0x192 c:/altera/15.0/nios2eds/bin/gnu/h-x86_64-mingw32/bin/../lib/gcc/nios2-elf/4.9.1/../../../../../H-x86_64-mingw32/nios2-elf/lib\libm.a(lib_a-e_sqrt.o)
 .debug_line    0x0000000000001a44      0x17b c:/altera/15.0/nios2eds/bin/gnu/h-x86_64-mingw32/bin/../lib/gcc/nios2-elf/4.9.1/../../../../../H-x86_64-mingw32/nios2-elf/lib\libm.a(lib_a-s_fpclassify.o)
 .debug_line    0x0000000000001bbf       0xc9 c:/altera/15.0/nios2eds/bin/gnu/h-x86_64-mingw32/bin/../lib/gcc/nios2-elf/4.9.1/../../../../../H-x86_64-mingw32/nios2-elf/lib\libm.a(lib_a-s_lib_ver.o)
 .debug_line    0x0000000000001c88       0xda c:/altera/15.0/nios2eds/bin/gnu/h-x86_64-mingw32/bin/../lib/gcc/nios2-elf/4.9.1/../../../../../H-x86_64-mingw32/nios2-elf/lib\libm.a(lib_a-s_matherr.o)
 .debug_line    0x0000000000001d62       0xc4 c:/altera/15.0/nios2eds/bin/gnu/h-x86_64-mingw32/bin/../lib/gcc/nios2-elf/4.9.1\libgcc.a(lib2-divmod.o)
 .debug_line    0x0000000000001e26      0x383 c:/altera/15.0/nios2eds/bin/gnu/h-x86_64-mingw32/bin/../lib/gcc/nios2-elf/4.9.1\libgcc.a(adddf3.o)
 .debug_line    0x00000000000021a9      0x2a3 c:/altera/15.0/nios2eds/bin/gnu/h-x86_64-mingw32/bin/../lib/gcc/nios2-elf/4.9.1\libgcc.a(divdf3.o)
 .debug_line    0x000000000000244c       0xca c:/altera/15.0/nios2eds/bin/gnu/h-x86_64-mingw32/bin/../lib/gcc/nios2-elf/4.9.1\libgcc.a(ledf2.o)
 .debug_line    0x0000000000002516      0x1db c:/altera/15.0/nios2eds/bin/gnu/h-x86_64-mingw32/bin/../lib/gcc/nios2-elf/4.9.1\libgcc.a(muldf3.o)
 .debug_line    0x00000000000026f1      0x39e c:/altera/15.0/nios2eds/bin/gnu/h-x86_64-mingw32/bin/../lib/gcc/nios2-elf/4.9.1\libgcc.a(subdf3.o)
 .debug_line    0x0000000000002a8f       0x99 c:/altera/15.0/nios2eds/bin/gnu/h-x86_64-mingw32/bin/../lib/gcc/nios2-elf/4.9.1\libgcc.a(fixdfsi.o)
 .debug_line    0x0000000000002b28       0x9d c:/altera/15.0/nios2eds/bin/gnu/h-x86_64-mingw32/bin/../lib/gcc/nios2-elf/4.9.1\libgcc.a(floatsidf.o)
 .debug_line    0x0000000000002bc5       0xb4 c:/altera/15.0/nios2eds/bin/gnu/h-x86_64-mingw32/bin/../lib/gcc/nios2-elf/4.9.1\libgcc.a(_clzsi2.o)
 .debug_line    0x0000000000002c79       0x53 c:/altera/15.0/nios2eds/bin/gnu/h-x86_64-mingw32/bin/../lib/gcc/nios2-elf/4.9.1\libgcc.a(_clz.o)
 .debug_line    0x0000000000002ccc      0x17a c:/altera/15.0/nios2eds/bin/gnu/h-x86_64-mingw32/bin/../lib/gcc/nios2-elf/4.9.1/../../../../../H-x86_64-mingw32/nios2-elf/lib\libc.a(lib_a-errno.o)
 .debug_line    0x0000000000002e46      0x15f c:/altera/15.0/nios2eds/bin/gnu/h-x86_64-mingw32/bin/../lib/gcc/nios2-elf/4.9.1/../../../../../H-x86_64-mingw32/nios2-elf/lib\libc.a(lib_a-impure.o)
 .debug_line    0x0000000000002fa5      0x1e4 c:/altera/15.0/nios2eds/bin/gnu/h-x86_64-mingw32/bin/../lib/gcc/nios2-elf/4.9.1/../../../../../H-x86_64-mingw32/nios2-elf/lib\libc.a(lib_a-malloc.o)
 .debug_line    0x0000000000003189      0x3fd c:/altera/15.0/nios2eds/bin/gnu/h-x86_64-mingw32/bin/../lib/gcc/nios2-elf/4.9.1/../../../../../H-x86_64-mingw32/nios2-elf/lib\libc.a(lib_a-mallocr.o)
 .debug_line    0x0000000000003586      0x184 c:/altera/15.0/nios2eds/bin/gnu/h-x86_64-mingw32/bin/../lib/gcc/nios2-elf/4.9.1/../../../../../H-x86_64-mingw32/nios2-elf/lib\libc.a(lib_a-memcpy.o)
 .debug_line    0x000000000000370a      0x18e c:/altera/15.0/nios2eds/bin/gnu/h-x86_64-mingw32/bin/../lib/gcc/nios2-elf/4.9.1/../../../../../H-x86_64-mingw32/nios2-elf/lib\libc.a(lib_a-memset.o)
 .debug_line    0x0000000000003898      0x1fd c:/altera/15.0/nios2eds/bin/gnu/h-x86_64-mingw32/bin/../lib/gcc/nios2-elf/4.9.1/../../../../../H-x86_64-mingw32/nios2-elf/lib\libc.a(lib_a-printf.o)
 .debug_line    0x0000000000003a95      0x223 c:/altera/15.0/nios2eds/bin/gnu/h-x86_64-mingw32/bin/../lib/gcc/nios2-elf/4.9.1/../../../../../H-x86_64-mingw32/nios2-elf/lib\libc.a(lib_a-puts.o)
 .debug_line    0x0000000000003cb8      0x1e9 c:/altera/15.0/nios2eds/bin/gnu/h-x86_64-mingw32/bin/../lib/gcc/nios2-elf/4.9.1/../../../../../H-x86_64-mingw32/nios2-elf/lib\libc.a(lib_a-sbrkr.o)
 .debug_line    0x0000000000003ea1       0xf3 c:/altera/15.0/nios2eds/bin/gnu/h-x86_64-mingw32/bin/../lib/gcc/nios2-elf/4.9.1/../../../../../H-x86_64-mingw32/nios2-elf/lib\libc.a(lib_a-strcpy.o)
 .debug_line    0x0000000000003f94      0x16e c:/altera/15.0/nios2eds/bin/gnu/h-x86_64-mingw32/bin/../lib/gcc/nios2-elf/4.9.1/../../../../../H-x86_64-mingw32/nios2-elf/lib\libc.a(lib_a-strlen.o)
 .debug_line    0x0000000000004102      0xaca c:/altera/15.0/nios2eds/bin/gnu/h-x86_64-mingw32/bin/../lib/gcc/nios2-elf/4.9.1/../../../../../H-x86_64-mingw32/nios2-elf/lib\libc.a(lib_a-vfprintf.o)
 .debug_line    0x0000000000004bcc      0x258 c:/altera/15.0/nios2eds/bin/gnu/h-x86_64-mingw32/bin/../lib/gcc/nios2-elf/4.9.1/../../../../../H-x86_64-mingw32/nios2-elf/lib\libc.a(lib_a-wsetup.o)
 .debug_line    0x0000000000004e24      0x7eb c:/altera/15.0/nios2eds/bin/gnu/h-x86_64-mingw32/bin/../lib/gcc/nios2-elf/4.9.1/../../../../../H-x86_64-mingw32/nios2-elf/lib\libc.a(lib_a-dtoa.o)
 .debug_line    0x000000000000560f      0x2bd c:/altera/15.0/nios2eds/bin/gnu/h-x86_64-mingw32/bin/../lib/gcc/nios2-elf/4.9.1/../../../../../H-x86_64-mingw32/nios2-elf/lib\libc.a(lib_a-fflush.o)
 .debug_line    0x00000000000058cc      0x304 c:/altera/15.0/nios2eds/bin/gnu/h-x86_64-mingw32/bin/../lib/gcc/nios2-elf/4.9.1/../../../../../H-x86_64-mingw32/nios2-elf/lib\libc.a(lib_a-findfp.o)
 .debug_line    0x0000000000005bd0      0x2e4 c:/altera/15.0/nios2eds/bin/gnu/h-x86_64-mingw32/bin/../lib/gcc/nios2-elf/4.9.1/../../../../../H-x86_64-mingw32/nios2-elf/lib\libc.a(lib_a-freer.o)
 .debug_line    0x0000000000005eb4      0x357 c:/altera/15.0/nios2eds/bin/gnu/h-x86_64-mingw32/bin/../lib/gcc/nios2-elf/4.9.1/../../../../../H-x86_64-mingw32/nios2-elf/lib\libc.a(lib_a-fvwrite.o)
 .debug_line    0x000000000000620b      0x228 c:/altera/15.0/nios2eds/bin/gnu/h-x86_64-mingw32/bin/../lib/gcc/nios2-elf/4.9.1/../../../../../H-x86_64-mingw32/nios2-elf/lib\libc.a(lib_a-fwalk.o)
 .debug_line    0x0000000000006433       0x5d c:/altera/15.0/nios2eds/bin/gnu/h-x86_64-mingw32/bin/../lib/gcc/nios2-elf/4.9.1/../../../../../H-x86_64-mingw32/nios2-elf/lib\libc.a(lib_a-int_errno.o)
 .debug_line    0x0000000000006490      0x22d c:/altera/15.0/nios2eds/bin/gnu/h-x86_64-mingw32/bin/../lib/gcc/nios2-elf/4.9.1/../../../../../H-x86_64-mingw32/nios2-elf/lib\libc.a(lib_a-locale.o)
 .debug_line    0x00000000000066bd      0x274 c:/altera/15.0/nios2eds/bin/gnu/h-x86_64-mingw32/bin/../lib/gcc/nios2-elf/4.9.1/../../../../../H-x86_64-mingw32/nios2-elf/lib\libc.a(lib_a-makebuf.o)
 .debug_line    0x0000000000006931      0x18d c:/altera/15.0/nios2eds/bin/gnu/h-x86_64-mingw32/bin/../lib/gcc/nios2-elf/4.9.1/../../../../../H-x86_64-mingw32/nios2-elf/lib\libc.a(lib_a-memchr.o)
 .debug_line    0x0000000000006abe      0x18b c:/altera/15.0/nios2eds/bin/gnu/h-x86_64-mingw32/bin/../lib/gcc/nios2-elf/4.9.1/../../../../../H-x86_64-mingw32/nios2-elf/lib\libc.a(lib_a-memmove.o)
 .debug_line    0x0000000000006c49      0x698 c:/altera/15.0/nios2eds/bin/gnu/h-x86_64-mingw32/bin/../lib/gcc/nios2-elf/4.9.1/../../../../../H-x86_64-mingw32/nios2-elf/lib\libc.a(lib_a-mprec.o)
 .debug_line    0x00000000000072e1      0x2fc c:/altera/15.0/nios2eds/bin/gnu/h-x86_64-mingw32/bin/../lib/gcc/nios2-elf/4.9.1/../../../../../H-x86_64-mingw32/nios2-elf/lib\libc.a(lib_a-reallocr.o)
 .debug_line    0x00000000000075dd      0x227 c:/altera/15.0/nios2eds/bin/gnu/h-x86_64-mingw32/bin/../lib/gcc/nios2-elf/4.9.1/../../../../../H-x86_64-mingw32/nios2-elf/lib\libc.a(lib_a-stdio.o)
 .debug_line    0x0000000000007804       0xf6 c:/altera/15.0/nios2eds/bin/gnu/h-x86_64-mingw32/bin/../lib/gcc/nios2-elf/4.9.1/../../../../../H-x86_64-mingw32/nios2-elf/lib\libc.a(lib_a-strcmp.o)
 .debug_line    0x00000000000078fa      0x7be c:/altera/15.0/nios2eds/bin/gnu/h-x86_64-mingw32/bin/../lib/gcc/nios2-elf/4.9.1/../../../../../H-x86_64-mingw32/nios2-elf/lib\libc.a(lib_a-vfiprintf.o)
 .debug_line    0x00000000000080b8      0x1f6 c:/altera/15.0/nios2eds/bin/gnu/h-x86_64-mingw32/bin/../lib/gcc/nios2-elf/4.9.1/../../../../../H-x86_64-mingw32/nios2-elf/lib\libc.a(lib_a-writer.o)
 .debug_line    0x00000000000082ae      0x1f6 c:/altera/15.0/nios2eds/bin/gnu/h-x86_64-mingw32/bin/../lib/gcc/nios2-elf/4.9.1/../../../../../H-x86_64-mingw32/nios2-elf/lib\libc.a(closer.o)
 .debug_line    0x00000000000084a4      0x1b6 c:/altera/15.0/nios2eds/bin/gnu/h-x86_64-mingw32/bin/../lib/gcc/nios2-elf/4.9.1/../../../../../H-x86_64-mingw32/nios2-elf/lib\libc.a(lib_a-callocr.o)
 .debug_line    0x000000000000865a      0x229 c:/altera/15.0/nios2eds/bin/gnu/h-x86_64-mingw32/bin/../lib/gcc/nios2-elf/4.9.1/../../../../../H-x86_64-mingw32/nios2-elf/lib\libc.a(lib_a-fclose.o)
 .debug_line    0x0000000000008883      0x251 c:/altera/15.0/nios2eds/bin/gnu/h-x86_64-mingw32/bin/../lib/gcc/nios2-elf/4.9.1/../../../../../H-x86_64-mingw32/nios2-elf/lib\libc.a(lib_a-fputwc.o)
 .debug_line    0x0000000000008ad4      0x1ff c:/altera/15.0/nios2eds/bin/gnu/h-x86_64-mingw32/bin/../lib/gcc/nios2-elf/4.9.1/../../../../../H-x86_64-mingw32/nios2-elf/lib\libc.a(lib_a-fstatr.o)
 .debug_line    0x0000000000008cd3      0x1f7 c:/altera/15.0/nios2eds/bin/gnu/h-x86_64-mingw32/bin/../lib/gcc/nios2-elf/4.9.1/../../../../../H-x86_64-mingw32/nios2-elf/lib\libc.a(lib_a-isattyr.o)
 .debug_line    0x0000000000008eca      0x201 c:/altera/15.0/nios2eds/bin/gnu/h-x86_64-mingw32/bin/../lib/gcc/nios2-elf/4.9.1/../../../../../H-x86_64-mingw32/nios2-elf/lib\libc.a(lib_a-lseekr.o)
 .debug_line    0x00000000000090cb      0x1f5 c:/altera/15.0/nios2eds/bin/gnu/h-x86_64-mingw32/bin/../lib/gcc/nios2-elf/4.9.1/../../../../../H-x86_64-mingw32/nios2-elf/lib\libc.a(lib_a-readr.o)
 .debug_line    0x00000000000092c0      0x270 c:/altera/15.0/nios2eds/bin/gnu/h-x86_64-mingw32/bin/../lib/gcc/nios2-elf/4.9.1/../../../../../H-x86_64-mingw32/nios2-elf/lib\libc.a(lib_a-wbuf.o)
 .debug_line    0x0000000000009530      0x219 c:/altera/15.0/nios2eds/bin/gnu/h-x86_64-mingw32/bin/../lib/gcc/nios2-elf/4.9.1/../../../../../H-x86_64-mingw32/nios2-elf/lib\libc.a(lib_a-wcrtomb.o)
 .debug_line    0x0000000000009749      0x20e c:/altera/15.0/nios2eds/bin/gnu/h-x86_64-mingw32/bin/../lib/gcc/nios2-elf/4.9.1/../../../../../H-x86_64-mingw32/nios2-elf/lib\libc.a(lib_a-wctomb_r.o)
 .debug_line    0x0000000000009957      0x134 c:/altera/15.0/nios2eds/bin/gnu/h-x86_64-mingw32/bin/../lib/gcc/nios2-elf/4.9.1\libgcc.a(_udivdi3.o)
 .debug_line    0x0000000000009a8b      0x145 c:/altera/15.0/nios2eds/bin/gnu/h-x86_64-mingw32/bin/../lib/gcc/nios2-elf/4.9.1\libgcc.a(_umoddi3.o)
 .debug_line    0x0000000000009bd0       0xab c:/altera/15.0/nios2eds/bin/gnu/h-x86_64-mingw32/bin/../lib/gcc/nios2-elf/4.9.1\libgcc.a(eqdf2.o)
 .debug_line    0x0000000000009c7b       0xcb c:/altera/15.0/nios2eds/bin/gnu/h-x86_64-mingw32/bin/../lib/gcc/nios2-elf/4.9.1\libgcc.a(gedf2.o)
 .debug_line    0x0000000000009d46       0x93 c:/altera/15.0/nios2eds/bin/gnu/h-x86_64-mingw32/bin/../lib/gcc/nios2-elf/4.9.1\libgcc.a(floatunsidf.o)
 .debug_line    0x0000000000009dd9       0xfa ../LT24_final_sw_bsp/\libucosii_bsp.a(alt_alarm_start.o)
 .debug_line    0x0000000000009ed3      0x16d ../LT24_final_sw_bsp/\libucosii_bsp.a(alt_close.o)
 .debug_line    0x000000000000a040      0x134 ../LT24_final_sw_bsp/\libucosii_bsp.a(alt_dev.o)
 .debug_line    0x000000000000a174       0x51 ../LT24_final_sw_bsp/\libucosii_bsp.a(alt_errno.o)
 .debug_line    0x000000000000a1c5      0x166 ../LT24_final_sw_bsp/\libucosii_bsp.a(alt_fstat.o)
 .debug_line    0x000000000000a32b       0xef ../LT24_final_sw_bsp/\libucosii_bsp.a(alt_iic.o)
 .debug_line    0x000000000000a41a       0xdb ../LT24_final_sw_bsp/\libucosii_bsp.a(alt_iic_isr_register.o)
 .debug_line    0x000000000000a4f5       0x6b ../LT24_final_sw_bsp/\libucosii_bsp.a(alt_irq_entry.o)
 .debug_line    0x000000000000a560       0xc8 ../LT24_final_sw_bsp/\libucosii_bsp.a(alt_irq_handler.o)
 .debug_line    0x000000000000a628       0x50 ../LT24_final_sw_bsp/\libucosii_bsp.a(alt_irq_vars.o)
 .debug_line    0x000000000000a678      0x16a ../LT24_final_sw_bsp/\libucosii_bsp.a(alt_isatty.o)
 .debug_line    0x000000000000a7e2       0x8d ../LT24_final_sw_bsp/\libucosii_bsp.a(alt_load.o)
 .debug_line    0x000000000000a86f      0x16b ../LT24_final_sw_bsp/\libucosii_bsp.a(alt_lseek.o)
 .debug_line    0x000000000000a9da      0x12f ../LT24_final_sw_bsp/\libucosii_bsp.a(alt_main.o)
 .debug_line    0x000000000000ab09      0x1dc ../LT24_final_sw_bsp/\libucosii_bsp.a(alt_read.o)
 .debug_line    0x000000000000ace5       0xbd ../LT24_final_sw_bsp/\libucosii_bsp.a(alt_release_fd.o)
 .debug_line    0x000000000000ada2       0xeb ../LT24_final_sw_bsp/\libucosii_bsp.a(alt_sbrk.o)
 .debug_line    0x000000000000ae8d       0xfe ../LT24_final_sw_bsp/\libucosii_bsp.a(alt_tick.o)
 .debug_line    0x000000000000af8b      0x13a ../LT24_final_sw_bsp/\libucosii_bsp.a(alt_usleep.o)
 .debug_line    0x000000000000b0c5      0x1db ../LT24_final_sw_bsp/\libucosii_bsp.a(alt_write.o)
 .debug_line    0x000000000000b2a0      0x192 ../LT24_final_sw_bsp/\libucosii_bsp.a(alt_env_lock.o)
 .debug_line    0x000000000000b432      0x200 ../LT24_final_sw_bsp/\libucosii_bsp.a(alt_malloc_lock.o)
 .debug_line    0x000000000000b632      0x67c ../LT24_final_sw_bsp/\libucosii_bsp.a(os_core.o)
 .debug_line    0x000000000000bcae       0xd2 ../LT24_final_sw_bsp/\libucosii_bsp.a(os_dbg.o)
 .debug_line    0x000000000000bd80      0x505 ../LT24_final_sw_bsp/\libucosii_bsp.a(os_flag.o)
 .debug_line    0x000000000000c285      0x30e ../LT24_final_sw_bsp/\libucosii_bsp.a(os_mbox.o)
 .debug_line    0x000000000000c593      0x23e ../LT24_final_sw_bsp/\libucosii_bsp.a(os_mem.o)
 .debug_line    0x000000000000c7d1      0x375 ../LT24_final_sw_bsp/\libucosii_bsp.a(os_mutex.o)
 .debug_line    0x000000000000cb46      0x410 ../LT24_final_sw_bsp/\libucosii_bsp.a(os_q.o)
 .debug_line    0x000000000000cf56      0x2ea ../LT24_final_sw_bsp/\libucosii_bsp.a(os_sem.o)
 .debug_line    0x000000000000d240      0x547 ../LT24_final_sw_bsp/\libucosii_bsp.a(os_task.o)
 .debug_line    0x000000000000d787      0x1aa ../LT24_final_sw_bsp/\libucosii_bsp.a(os_time.o)
 .debug_line    0x000000000000d931      0x178 ../LT24_final_sw_bsp/\libucosii_bsp.a(alt_sys_init.o)
 .debug_line    0x000000000000daa9      0x155 ../LT24_final_sw_bsp/\libucosii_bsp.a(altera_avalon_jtag_uart_fd.o)
 .debug_line    0x000000000000dbfe      0x21e ../LT24_final_sw_bsp/\libucosii_bsp.a(altera_avalon_jtag_uart_init.o)
 .debug_line    0x000000000000de1c      0x154 ../LT24_final_sw_bsp/\libucosii_bsp.a(altera_avalon_jtag_uart_ioctl.o)
 .debug_line    0x000000000000df70      0x1d8 ../LT24_final_sw_bsp/\libucosii_bsp.a(altera_avalon_jtag_uart_read.o)
 .debug_line    0x000000000000e148      0x1d8 ../LT24_final_sw_bsp/\libucosii_bsp.a(altera_avalon_jtag_uart_write.o)
 .debug_line    0x000000000000e320       0xb7 ../LT24_final_sw_bsp/\libucosii_bsp.a(altera_avalon_spi.o)
 .debug_line    0x000000000000e3d7       0xfd ../LT24_final_sw_bsp/\libucosii_bsp.a(altera_avalon_timer_sc.o)
 .debug_line    0x000000000000e4d4       0xa0 ../LT24_final_sw_bsp/\libucosii_bsp.a(alt_busy_sleep.o)
 .debug_line    0x000000000000e574       0x61 ../LT24_final_sw_bsp/\libucosii_bsp.a(alt_dcache_flush_all.o)
 .debug_line    0x000000000000e5d5       0xd0 ../LT24_final_sw_bsp/\libucosii_bsp.a(alt_dev_llist_insert.o)
 .debug_line    0x000000000000e6a5       0x59 ../LT24_final_sw_bsp/\libucosii_bsp.a(alt_do_ctors.o)
 .debug_line    0x000000000000e6fe       0x59 ../LT24_final_sw_bsp/\libucosii_bsp.a(alt_do_dtors.o)
 .debug_line    0x000000000000e757       0xab ../LT24_final_sw_bsp/\libucosii_bsp.a(alt_exception_entry.o)
 .debug_line    0x000000000000e802       0x50 ../LT24_final_sw_bsp/\libucosii_bsp.a(alt_icache_flush_all.o)
 .debug_line    0x000000000000e852      0x13a ../LT24_final_sw_bsp/\libucosii_bsp.a(alt_io_redirect.o)
 .debug_line    0x000000000000e98c      0x139 ../LT24_final_sw_bsp/\libucosii_bsp.a(alt_open.o)
 .debug_line    0x000000000000eac5       0x51 ../LT24_final_sw_bsp/\libucosii_bsp.a(altera_nios2_qsys_irq.o)
 .debug_line    0x000000000000eb16       0x86 ../LT24_final_sw_bsp/\libucosii_bsp.a(os_cpu_a.o)
 .debug_line    0x000000000000eb9c      0x199 ../LT24_final_sw_bsp/\libucosii_bsp.a(os_cpu_c.o)
 .debug_line    0x000000000000ed35       0xc4 ../LT24_final_sw_bsp/\libucosii_bsp.a(alt_find_dev.o)
 .debug_line    0x000000000000edf9       0xe0 ../LT24_final_sw_bsp/\libucosii_bsp.a(alt_find_file.o)
 .debug_line    0x000000000000eed9      0x129 ../LT24_final_sw_bsp/\libucosii_bsp.a(alt_get_fd.o)
 .debug_line    0x000000000000f002       0x81 ../LT24_final_sw_bsp/\libucosii_bsp.a(alt_icache_flush.o)
 .debug_line    0x000000000000f083       0xe6 c:/altera/15.0/nios2eds/bin/gnu/h-x86_64-mingw32/bin/../lib/gcc/nios2-elf/4.9.1/../../../../../H-x86_64-mingw32/nios2-elf/lib\libc.a(lib_a-atexit.o)
 .debug_line    0x000000000000f169      0x1fa c:/altera/15.0/nios2eds/bin/gnu/h-x86_64-mingw32/bin/../lib/gcc/nios2-elf/4.9.1/../../../../../H-x86_64-mingw32/nios2-elf/lib\libc.a(lib_a-exit.o)
 .debug_line    0x000000000000f363      0x175 c:/altera/15.0/nios2eds/bin/gnu/h-x86_64-mingw32/bin/../lib/gcc/nios2-elf/4.9.1/../../../../../H-x86_64-mingw32/nios2-elf/lib\libc.a(lib_a-memcmp.o)
 .debug_line    0x000000000000f4d8      0x224 c:/altera/15.0/nios2eds/bin/gnu/h-x86_64-mingw32/bin/../lib/gcc/nios2-elf/4.9.1/../../../../../H-x86_64-mingw32/nios2-elf/lib\libc.a(lib_a-__atexit.o)
 .debug_line    0x000000000000f6fc      0x241 c:/altera/15.0/nios2eds/bin/gnu/h-x86_64-mingw32/bin/../lib/gcc/nios2-elf/4.9.1/../../../../../H-x86_64-mingw32/nios2-elf/lib\libc.a(lib_a-__call_atexit.o)
 .debug_line    0x000000000000f93d       0xcf ../LT24_final_sw_bsp/\libucosii_bsp.a(alt_exit.o)

.debug_frame    0x0000000000000000     0x438c
 *(.debug_frame)
 .debug_frame   0x0000000000000000      0x1f0 obj/default/demo/gui.o
 .debug_frame   0x00000000000001f0      0x16c obj/default/graphic_lib/ILI9341.o
 .debug_frame   0x000000000000035c      0x17c obj/default/graphic_lib/geometry.o
 .debug_frame   0x00000000000004d8      0x5a4 obj/default/graphic_lib/simple_graphics.o
 .debug_frame   0x0000000000000a7c      0x11c obj/default/graphic_lib/simple_text.o
 .debug_frame   0x0000000000000b98       0x8c obj/default/main.o
 .debug_frame   0x0000000000000c24       0xdc obj/default/terasic_lib/accelerometer_adxl345_spi.o
 .debug_frame   0x0000000000000d00       0xd4 obj/default/terasic_lib/terasic_spi.o
 .debug_frame   0x0000000000000dd4      0x1f0 obj/default/terasic_lib/touch_spi.o
 .debug_frame   0x0000000000000fc4       0x44 c:/altera/15.0/nios2eds/bin/gnu/h-x86_64-mingw32/bin/../lib/gcc/nios2-elf/4.9.1/../../../../../H-x86_64-mingw32/nios2-elf/lib\libm.a(lib_a-w_sqrt.o)
 .debug_frame   0x0000000000001008       0x38 c:/altera/15.0/nios2eds/bin/gnu/h-x86_64-mingw32/bin/../lib/gcc/nios2-elf/4.9.1/../../../../../H-x86_64-mingw32/nios2-elf/lib\libm.a(lib_a-e_sqrt.o)
 .debug_frame   0x0000000000001040       0x20 c:/altera/15.0/nios2eds/bin/gnu/h-x86_64-mingw32/bin/../lib/gcc/nios2-elf/4.9.1/../../../../../H-x86_64-mingw32/nios2-elf/lib\libm.a(lib_a-s_fpclassify.o)
 .debug_frame   0x0000000000001060       0x20 c:/altera/15.0/nios2eds/bin/gnu/h-x86_64-mingw32/bin/../lib/gcc/nios2-elf/4.9.1/../../../../../H-x86_64-mingw32/nios2-elf/lib\libm.a(lib_a-s_matherr.o)
 .debug_frame   0x0000000000001080       0x8c c:/altera/15.0/nios2eds/bin/gnu/h-x86_64-mingw32/bin/../lib/gcc/nios2-elf/4.9.1\libgcc.a(lib2-divmod.o)
 .debug_frame   0x000000000000110c       0x40 c:/altera/15.0/nios2eds/bin/gnu/h-x86_64-mingw32/bin/../lib/gcc/nios2-elf/4.9.1\libgcc.a(adddf3.o)
 .debug_frame   0x000000000000114c       0x58 c:/altera/15.0/nios2eds/bin/gnu/h-x86_64-mingw32/bin/../lib/gcc/nios2-elf/4.9.1\libgcc.a(divdf3.o)
 .debug_frame   0x00000000000011a4       0x20 c:/altera/15.0/nios2eds/bin/gnu/h-x86_64-mingw32/bin/../lib/gcc/nios2-elf/4.9.1\libgcc.a(ledf2.o)
 .debug_frame   0x00000000000011c4       0x58 c:/altera/15.0/nios2eds/bin/gnu/h-x86_64-mingw32/bin/../lib/gcc/nios2-elf/4.9.1\libgcc.a(muldf3.o)
 .debug_frame   0x000000000000121c       0x44 c:/altera/15.0/nios2eds/bin/gnu/h-x86_64-mingw32/bin/../lib/gcc/nios2-elf/4.9.1\libgcc.a(subdf3.o)
 .debug_frame   0x0000000000001260       0x20 c:/altera/15.0/nios2eds/bin/gnu/h-x86_64-mingw32/bin/../lib/gcc/nios2-elf/4.9.1\libgcc.a(fixdfsi.o)
 .debug_frame   0x0000000000001280       0x38 c:/altera/15.0/nios2eds/bin/gnu/h-x86_64-mingw32/bin/../lib/gcc/nios2-elf/4.9.1\libgcc.a(floatsidf.o)
 .debug_frame   0x00000000000012b8       0x20 c:/altera/15.0/nios2eds/bin/gnu/h-x86_64-mingw32/bin/../lib/gcc/nios2-elf/4.9.1\libgcc.a(_clzsi2.o)
 .debug_frame   0x00000000000012d8       0x20 c:/altera/15.0/nios2eds/bin/gnu/h-x86_64-mingw32/bin/../lib/gcc/nios2-elf/4.9.1/../../../../../H-x86_64-mingw32/nios2-elf/lib\libc.a(lib_a-errno.o)
 .debug_frame   0x00000000000012f8       0x30 c:/altera/15.0/nios2eds/bin/gnu/h-x86_64-mingw32/bin/../lib/gcc/nios2-elf/4.9.1/../../../../../H-x86_64-mingw32/nios2-elf/lib\libc.a(lib_a-malloc.o)
 .debug_frame   0x0000000000001328       0x54 c:/altera/15.0/nios2eds/bin/gnu/h-x86_64-mingw32/bin/../lib/gcc/nios2-elf/4.9.1/../../../../../H-x86_64-mingw32/nios2-elf/lib\libc.a(lib_a-mallocr.o)
 .debug_frame   0x000000000000137c       0x30 c:/altera/15.0/nios2eds/bin/gnu/h-x86_64-mingw32/bin/../lib/gcc/nios2-elf/4.9.1/../../../../../H-x86_64-mingw32/nios2-elf/lib\libc.a(lib_a-memcpy.o)
 .debug_frame   0x00000000000013ac       0x20 c:/altera/15.0/nios2eds/bin/gnu/h-x86_64-mingw32/bin/../lib/gcc/nios2-elf/4.9.1/../../../../../H-x86_64-mingw32/nios2-elf/lib\libc.a(lib_a-memset.o)
 .debug_frame   0x00000000000013cc       0x48 c:/altera/15.0/nios2eds/bin/gnu/h-x86_64-mingw32/bin/../lib/gcc/nios2-elf/4.9.1/../../../../../H-x86_64-mingw32/nios2-elf/lib\libc.a(lib_a-printf.o)
 .debug_frame   0x0000000000001414       0x48 c:/altera/15.0/nios2eds/bin/gnu/h-x86_64-mingw32/bin/../lib/gcc/nios2-elf/4.9.1/../../../../../H-x86_64-mingw32/nios2-elf/lib\libc.a(lib_a-puts.o)
 .debug_frame   0x000000000000145c       0x38 c:/altera/15.0/nios2eds/bin/gnu/h-x86_64-mingw32/bin/../lib/gcc/nios2-elf/4.9.1/../../../../../H-x86_64-mingw32/nios2-elf/lib\libc.a(lib_a-sbrkr.o)
 .debug_frame   0x0000000000001494       0x20 c:/altera/15.0/nios2eds/bin/gnu/h-x86_64-mingw32/bin/../lib/gcc/nios2-elf/4.9.1/../../../../../H-x86_64-mingw32/nios2-elf/lib\libc.a(lib_a-strcpy.o)
 .debug_frame   0x00000000000014b4       0x20 c:/altera/15.0/nios2eds/bin/gnu/h-x86_64-mingw32/bin/../lib/gcc/nios2-elf/4.9.1/../../../../../H-x86_64-mingw32/nios2-elf/lib\libc.a(lib_a-strlen.o)
 .debug_frame   0x00000000000014d4       0x68 c:/altera/15.0/nios2eds/bin/gnu/h-x86_64-mingw32/bin/../lib/gcc/nios2-elf/4.9.1/../../../../../H-x86_64-mingw32/nios2-elf/lib\libc.a(lib_a-vfprintf.o)
 .debug_frame   0x000000000000153c       0x38 c:/altera/15.0/nios2eds/bin/gnu/h-x86_64-mingw32/bin/../lib/gcc/nios2-elf/4.9.1/../../../../../H-x86_64-mingw32/nios2-elf/lib\libc.a(lib_a-wsetup.o)
 .debug_frame   0x0000000000001574       0x98 c:/altera/15.0/nios2eds/bin/gnu/h-x86_64-mingw32/bin/../lib/gcc/nios2-elf/4.9.1/../../../../../H-x86_64-mingw32/nios2-elf/lib\libc.a(lib_a-dtoa.o)
 .debug_frame   0x000000000000160c       0x50 c:/altera/15.0/nios2eds/bin/gnu/h-x86_64-mingw32/bin/../lib/gcc/nios2-elf/4.9.1/../../../../../H-x86_64-mingw32/nios2-elf/lib\libc.a(lib_a-fflush.o)
 .debug_frame   0x000000000000165c      0x160 c:/altera/15.0/nios2eds/bin/gnu/h-x86_64-mingw32/bin/../lib/gcc/nios2-elf/4.9.1/../../../../../H-x86_64-mingw32/nios2-elf/lib\libc.a(lib_a-findfp.o)
 .debug_frame   0x00000000000017bc       0x70 c:/altera/15.0/nios2eds/bin/gnu/h-x86_64-mingw32/bin/../lib/gcc/nios2-elf/4.9.1/../../../../../H-x86_64-mingw32/nios2-elf/lib\libc.a(lib_a-freer.o)
 .debug_frame   0x000000000000182c       0x78 c:/altera/15.0/nios2eds/bin/gnu/h-x86_64-mingw32/bin/../lib/gcc/nios2-elf/4.9.1/../../../../../H-x86_64-mingw32/nios2-elf/lib\libc.a(lib_a-fvwrite.o)
 .debug_frame   0x00000000000018a4       0x88 c:/altera/15.0/nios2eds/bin/gnu/h-x86_64-mingw32/bin/../lib/gcc/nios2-elf/4.9.1/../../../../../H-x86_64-mingw32/nios2-elf/lib\libc.a(lib_a-fwalk.o)
 .debug_frame   0x000000000000192c       0xa8 c:/altera/15.0/nios2eds/bin/gnu/h-x86_64-mingw32/bin/../lib/gcc/nios2-elf/4.9.1/../../../../../H-x86_64-mingw32/nios2-elf/lib\libc.a(lib_a-locale.o)
 .debug_frame   0x00000000000019d4       0x4c c:/altera/15.0/nios2eds/bin/gnu/h-x86_64-mingw32/bin/../lib/gcc/nios2-elf/4.9.1/../../../../../H-x86_64-mingw32/nios2-elf/lib\libc.a(lib_a-makebuf.o)
 .debug_frame   0x0000000000001a20       0x20 c:/altera/15.0/nios2eds/bin/gnu/h-x86_64-mingw32/bin/../lib/gcc/nios2-elf/4.9.1/../../../../../H-x86_64-mingw32/nios2-elf/lib\libc.a(lib_a-memchr.o)
 .debug_frame   0x0000000000001a40       0x20 c:/altera/15.0/nios2eds/bin/gnu/h-x86_64-mingw32/bin/../lib/gcc/nios2-elf/4.9.1/../../../../../H-x86_64-mingw32/nios2-elf/lib\libc.a(lib_a-memmove.o)
 .debug_frame   0x0000000000001a60      0x2e8 c:/altera/15.0/nios2eds/bin/gnu/h-x86_64-mingw32/bin/../lib/gcc/nios2-elf/4.9.1/../../../../../H-x86_64-mingw32/nios2-elf/lib\libc.a(lib_a-mprec.o)
 .debug_frame   0x0000000000001d48       0x70 c:/altera/15.0/nios2eds/bin/gnu/h-x86_64-mingw32/bin/../lib/gcc/nios2-elf/4.9.1/../../../../../H-x86_64-mingw32/nios2-elf/lib\libc.a(lib_a-reallocr.o)
 .debug_frame   0x0000000000001db8       0xb4 c:/altera/15.0/nios2eds/bin/gnu/h-x86_64-mingw32/bin/../lib/gcc/nios2-elf/4.9.1/../../../../../H-x86_64-mingw32/nios2-elf/lib\libc.a(lib_a-stdio.o)
 .debug_frame   0x0000000000001e6c       0x20 c:/altera/15.0/nios2eds/bin/gnu/h-x86_64-mingw32/bin/../lib/gcc/nios2-elf/4.9.1/../../../../../H-x86_64-mingw32/nios2-elf/lib\libc.a(lib_a-strcmp.o)
 .debug_frame   0x0000000000001e8c       0xbc c:/altera/15.0/nios2eds/bin/gnu/h-x86_64-mingw32/bin/../lib/gcc/nios2-elf/4.9.1/../../../../../H-x86_64-mingw32/nios2-elf/lib\libc.a(lib_a-vfiprintf.o)
 .debug_frame   0x0000000000001f48       0x38 c:/altera/15.0/nios2eds/bin/gnu/h-x86_64-mingw32/bin/../lib/gcc/nios2-elf/4.9.1/../../../../../H-x86_64-mingw32/nios2-elf/lib\libc.a(lib_a-writer.o)
 .debug_frame   0x0000000000001f80       0x38 c:/altera/15.0/nios2eds/bin/gnu/h-x86_64-mingw32/bin/../lib/gcc/nios2-elf/4.9.1/../../../../../H-x86_64-mingw32/nios2-elf/lib\libc.a(closer.o)
 .debug_frame   0x0000000000001fb8       0x40 c:/altera/15.0/nios2eds/bin/gnu/h-x86_64-mingw32/bin/../lib/gcc/nios2-elf/4.9.1/../../../../../H-x86_64-mingw32/nios2-elf/lib\libc.a(lib_a-callocr.o)
 .debug_frame   0x0000000000001ff8       0x60 c:/altera/15.0/nios2eds/bin/gnu/h-x86_64-mingw32/bin/../lib/gcc/nios2-elf/4.9.1/../../../../../H-x86_64-mingw32/nios2-elf/lib\libc.a(lib_a-fclose.o)
 .debug_frame   0x0000000000002058       0x70 c:/altera/15.0/nios2eds/bin/gnu/h-x86_64-mingw32/bin/../lib/gcc/nios2-elf/4.9.1/../../../../../H-x86_64-mingw32/nios2-elf/lib\libc.a(lib_a-fputwc.o)
 .debug_frame   0x00000000000020c8       0x38 c:/altera/15.0/nios2eds/bin/gnu/h-x86_64-mingw32/bin/../lib/gcc/nios2-elf/4.9.1/../../../../../H-x86_64-mingw32/nios2-elf/lib\libc.a(lib_a-fstatr.o)
 .debug_frame   0x0000000000002100       0x38 c:/altera/15.0/nios2eds/bin/gnu/h-x86_64-mingw32/bin/../lib/gcc/nios2-elf/4.9.1/../../../../../H-x86_64-mingw32/nios2-elf/lib\libc.a(lib_a-isattyr.o)
 .debug_frame   0x0000000000002138       0x38 c:/altera/15.0/nios2eds/bin/gnu/h-x86_64-mingw32/bin/../lib/gcc/nios2-elf/4.9.1/../../../../../H-x86_64-mingw32/nios2-elf/lib\libc.a(lib_a-lseekr.o)
 .debug_frame   0x0000000000002170       0x38 c:/altera/15.0/nios2eds/bin/gnu/h-x86_64-mingw32/bin/../lib/gcc/nios2-elf/4.9.1/../../../../../H-x86_64-mingw32/nios2-elf/lib\libc.a(lib_a-readr.o)
 .debug_frame   0x00000000000021a8       0x4c c:/altera/15.0/nios2eds/bin/gnu/h-x86_64-mingw32/bin/../lib/gcc/nios2-elf/4.9.1/../../../../../H-x86_64-mingw32/nios2-elf/lib\libc.a(lib_a-wbuf.o)
 .debug_frame   0x00000000000021f4       0x74 c:/altera/15.0/nios2eds/bin/gnu/h-x86_64-mingw32/bin/../lib/gcc/nios2-elf/4.9.1/../../../../../H-x86_64-mingw32/nios2-elf/lib\libc.a(lib_a-wcrtomb.o)
 .debug_frame   0x0000000000002268       0x44 c:/altera/15.0/nios2eds/bin/gnu/h-x86_64-mingw32/bin/../lib/gcc/nios2-elf/4.9.1/../../../../../H-x86_64-mingw32/nios2-elf/lib\libc.a(lib_a-wctomb_r.o)
 .debug_frame   0x00000000000022ac       0x54 c:/altera/15.0/nios2eds/bin/gnu/h-x86_64-mingw32/bin/../lib/gcc/nios2-elf/4.9.1\libgcc.a(_udivdi3.o)
 .debug_frame   0x0000000000002300       0x54 c:/altera/15.0/nios2eds/bin/gnu/h-x86_64-mingw32/bin/../lib/gcc/nios2-elf/4.9.1\libgcc.a(_umoddi3.o)
 .debug_frame   0x0000000000002354       0x20 c:/altera/15.0/nios2eds/bin/gnu/h-x86_64-mingw32/bin/../lib/gcc/nios2-elf/4.9.1\libgcc.a(eqdf2.o)
 .debug_frame   0x0000000000002374       0x20 c:/altera/15.0/nios2eds/bin/gnu/h-x86_64-mingw32/bin/../lib/gcc/nios2-elf/4.9.1\libgcc.a(gedf2.o)
 .debug_frame   0x0000000000002394       0x34 c:/altera/15.0/nios2eds/bin/gnu/h-x86_64-mingw32/bin/../lib/gcc/nios2-elf/4.9.1\libgcc.a(floatunsidf.o)
 .debug_frame   0x00000000000023c8       0x34 ../LT24_final_sw_bsp/\libucosii_bsp.a(alt_alarm_start.o)
 .debug_frame   0x00000000000023fc       0x60 ../LT24_final_sw_bsp/\libucosii_bsp.a(alt_close.o)
 .debug_frame   0x000000000000245c       0x34 ../LT24_final_sw_bsp/\libucosii_bsp.a(alt_dev.o)
 .debug_frame   0x0000000000002490       0x60 ../LT24_final_sw_bsp/\libucosii_bsp.a(alt_fstat.o)
 .debug_frame   0x00000000000024f0       0xa4 ../LT24_final_sw_bsp/\libucosii_bsp.a(alt_iic.o)
 .debug_frame   0x0000000000002594       0x38 ../LT24_final_sw_bsp/\libucosii_bsp.a(alt_iic_isr_register.o)
 .debug_frame   0x00000000000025cc       0x38 ../LT24_final_sw_bsp/\libucosii_bsp.a(alt_irq_handler.o)
 .debug_frame   0x0000000000002604       0x60 ../LT24_final_sw_bsp/\libucosii_bsp.a(alt_isatty.o)
 .debug_frame   0x0000000000002664       0x5c ../LT24_final_sw_bsp/\libucosii_bsp.a(alt_load.o)
 .debug_frame   0x00000000000026c0       0x60 ../LT24_final_sw_bsp/\libucosii_bsp.a(alt_lseek.o)
 .debug_frame   0x0000000000002720       0x2c ../LT24_final_sw_bsp/\libucosii_bsp.a(alt_main.o)
 .debug_frame   0x000000000000274c       0x60 ../LT24_final_sw_bsp/\libucosii_bsp.a(alt_read.o)
 .debug_frame   0x00000000000027ac       0x34 ../LT24_final_sw_bsp/\libucosii_bsp.a(alt_release_fd.o)
 .debug_frame   0x00000000000027e0       0x34 ../LT24_final_sw_bsp/\libucosii_bsp.a(alt_sbrk.o)
 .debug_frame   0x0000000000002814       0x5c ../LT24_final_sw_bsp/\libucosii_bsp.a(alt_tick.o)
 .debug_frame   0x0000000000002870       0x3c ../LT24_final_sw_bsp/\libucosii_bsp.a(alt_usleep.o)
 .debug_frame   0x00000000000028ac       0x60 ../LT24_final_sw_bsp/\libucosii_bsp.a(alt_write.o)
 .debug_frame   0x000000000000290c       0x60 ../LT24_final_sw_bsp/\libucosii_bsp.a(alt_env_lock.o)
 .debug_frame   0x000000000000296c       0x64 ../LT24_final_sw_bsp/\libucosii_bsp.a(alt_malloc_lock.o)
 .debug_frame   0x00000000000029d0      0x530 ../LT24_final_sw_bsp/\libucosii_bsp.a(os_core.o)
 .debug_frame   0x0000000000002f00       0x34 ../LT24_final_sw_bsp/\libucosii_bsp.a(os_dbg.o)
 .debug_frame   0x0000000000002f34      0x200 ../LT24_final_sw_bsp/\libucosii_bsp.a(os_flag.o)
 .debug_frame   0x0000000000003134      0x148 ../LT24_final_sw_bsp/\libucosii_bsp.a(os_mbox.o)
 .debug_frame   0x000000000000327c      0x118 ../LT24_final_sw_bsp/\libucosii_bsp.a(os_mem.o)
 .debug_frame   0x0000000000003394      0x11c ../LT24_final_sw_bsp/\libucosii_bsp.a(os_mutex.o)
 .debug_frame   0x00000000000034b0      0x1bc ../LT24_final_sw_bsp/\libucosii_bsp.a(os_q.o)
 .debug_frame   0x000000000000366c      0x144 ../LT24_final_sw_bsp/\libucosii_bsp.a(os_sem.o)
 .debug_frame   0x00000000000037b0      0x1e4 ../LT24_final_sw_bsp/\libucosii_bsp.a(os_task.o)
 .debug_frame   0x0000000000003994       0xd8 ../LT24_final_sw_bsp/\libucosii_bsp.a(os_time.o)
 .debug_frame   0x0000000000003a6c       0x88 ../LT24_final_sw_bsp/\libucosii_bsp.a(alt_sys_init.o)
 .debug_frame   0x0000000000003af4       0xb0 ../LT24_final_sw_bsp/\libucosii_bsp.a(altera_avalon_jtag_uart_fd.o)
 .debug_frame   0x0000000000003ba4       0xac ../LT24_final_sw_bsp/\libucosii_bsp.a(altera_avalon_jtag_uart_init.o)
 .debug_frame   0x0000000000003c50       0x34 ../LT24_final_sw_bsp/\libucosii_bsp.a(altera_avalon_jtag_uart_ioctl.o)
 .debug_frame   0x0000000000003c84       0x38 ../LT24_final_sw_bsp/\libucosii_bsp.a(altera_avalon_jtag_uart_read.o)
 .debug_frame   0x0000000000003cbc       0x38 ../LT24_final_sw_bsp/\libucosii_bsp.a(altera_avalon_jtag_uart_write.o)
 .debug_frame   0x0000000000003cf4       0x34 ../LT24_final_sw_bsp/\libucosii_bsp.a(altera_avalon_spi.o)
 .debug_frame   0x0000000000003d28       0x60 ../LT24_final_sw_bsp/\libucosii_bsp.a(altera_avalon_timer_sc.o)
 .debug_frame   0x0000000000003d88       0x38 ../LT24_final_sw_bsp/\libucosii_bsp.a(alt_busy_sleep.o)
 .debug_frame   0x0000000000003dc0       0x34 ../LT24_final_sw_bsp/\libucosii_bsp.a(alt_dcache_flush_all.o)
 .debug_frame   0x0000000000003df4       0x60 ../LT24_final_sw_bsp/\libucosii_bsp.a(alt_dev_llist_insert.o)
 .debug_frame   0x0000000000003e54       0x38 ../LT24_final_sw_bsp/\libucosii_bsp.a(alt_do_ctors.o)
 .debug_frame   0x0000000000003e8c       0x38 ../LT24_final_sw_bsp/\libucosii_bsp.a(alt_do_dtors.o)
 .debug_frame   0x0000000000003ec4       0x38 ../LT24_final_sw_bsp/\libucosii_bsp.a(alt_icache_flush_all.o)
 .debug_frame   0x0000000000003efc       0x60 ../LT24_final_sw_bsp/\libucosii_bsp.a(alt_io_redirect.o)
 .debug_frame   0x0000000000003f5c       0x84 ../LT24_final_sw_bsp/\libucosii_bsp.a(alt_open.o)
 .debug_frame   0x0000000000003fe0       0x34 ../LT24_final_sw_bsp/\libucosii_bsp.a(altera_nios2_qsys_irq.o)
 .debug_frame   0x0000000000004014      0x17c ../LT24_final_sw_bsp/\libucosii_bsp.a(os_cpu_c.o)
 .debug_frame   0x0000000000004190       0x38 ../LT24_final_sw_bsp/\libucosii_bsp.a(alt_find_dev.o)
 .debug_frame   0x00000000000041c8       0x38 ../LT24_final_sw_bsp/\libucosii_bsp.a(alt_find_file.o)
 .debug_frame   0x0000000000004200       0x38 ../LT24_final_sw_bsp/\libucosii_bsp.a(alt_get_fd.o)
 .debug_frame   0x0000000000004238       0x34 ../LT24_final_sw_bsp/\libucosii_bsp.a(alt_icache_flush.o)
 .debug_frame   0x000000000000426c       0x20 c:/altera/15.0/nios2eds/bin/gnu/h-x86_64-mingw32/bin/../lib/gcc/nios2-elf/4.9.1/../../../../../H-x86_64-mingw32/nios2-elf/lib\libc.a(lib_a-atexit.o)
 .debug_frame   0x000000000000428c       0x28 c:/altera/15.0/nios2eds/bin/gnu/h-x86_64-mingw32/bin/../lib/gcc/nios2-elf/4.9.1/../../../../../H-x86_64-mingw32/nios2-elf/lib\libc.a(lib_a-exit.o)
 .debug_frame   0x00000000000042b4       0x20 c:/altera/15.0/nios2eds/bin/gnu/h-x86_64-mingw32/bin/../lib/gcc/nios2-elf/4.9.1/../../../../../H-x86_64-mingw32/nios2-elf/lib\libc.a(lib_a-memcmp.o)
 .debug_frame   0x00000000000042d4       0x38 c:/altera/15.0/nios2eds/bin/gnu/h-x86_64-mingw32/bin/../lib/gcc/nios2-elf/4.9.1/../../../../../H-x86_64-mingw32/nios2-elf/lib\libc.a(lib_a-__atexit.o)
 .debug_frame   0x000000000000430c       0x54 c:/altera/15.0/nios2eds/bin/gnu/h-x86_64-mingw32/bin/../lib/gcc/nios2-elf/4.9.1/../../../../../H-x86_64-mingw32/nios2-elf/lib\libc.a(lib_a-__call_atexit.o)
 .debug_frame   0x0000000000004360       0x2c ../LT24_final_sw_bsp/\libucosii_bsp.a(alt_exit.o)

.debug_str      0x0000000000000000     0x646e
 *(.debug_str)
 .debug_str     0x0000000000000000      0x359 obj/default/demo/gui.o
                                        0x3ce (size before relaxing)
 .debug_str     0x0000000000000359      0x66f obj/default/fonts/tahomabold_20.o
                                        0x791 (size before relaxing)
 .debug_str     0x00000000000009c8      0x67d obj/default/fonts/tahomabold_32.o
                                        0x791 (size before relaxing)
 .debug_str     0x0000000000001045       0xbf obj/default/graphic_lib/ILI9341.o
                                        0x235 (size before relaxing)
 .debug_str     0x0000000000001104       0xaf obj/default/graphic_lib/geometry.o
                                        0x23e (size before relaxing)
 .debug_str     0x00000000000011b3      0x6dc obj/default/graphic_lib/simple_graphics.o
                                        0x8e7 (size before relaxing)
 .debug_str     0x000000000000188f      0x164 obj/default/graphic_lib/simple_text.o
                                        0x403 (size before relaxing)
 .debug_str     0x00000000000019f3      0x18b obj/default/main.o
                                        0x3b8 (size before relaxing)
 .debug_str     0x0000000000001b7e       0xd8 obj/default/terasic_lib/accelerometer_adxl345_spi.o
                                        0x275 (size before relaxing)
 .debug_str     0x0000000000001c56      0x11e obj/default/terasic_lib/terasic_spi.o
                                        0x2a5 (size before relaxing)
 .debug_str     0x0000000000001d74      0x1c1 obj/default/terasic_lib/touch_spi.o
                                        0x3b4 (size before relaxing)
 .debug_str     0x0000000000001f35      0x18d c:/altera/15.0/nios2eds/bin/gnu/h-x86_64-mingw32/bin/../lib/gcc/nios2-elf/4.9.1/../../../../../H-x86_64-mingw32/nios2-elf/lib\libm.a(lib_a-w_sqrt.o)
                                        0x247 (size before relaxing)
 .debug_str     0x00000000000020c2       0x4e c:/altera/15.0/nios2eds/bin/gnu/h-x86_64-mingw32/bin/../lib/gcc/nios2-elf/4.9.1/../../../../../H-x86_64-mingw32/nios2-elf/lib\libm.a(lib_a-e_sqrt.o)
                                        0x1c3 (size before relaxing)
 .debug_str     0x0000000000002110       0xc5 c:/altera/15.0/nios2eds/bin/gnu/h-x86_64-mingw32/bin/../lib/gcc/nios2-elf/4.9.1/../../../../../H-x86_64-mingw32/nios2-elf/lib\libm.a(lib_a-s_fpclassify.o)
                                        0x1b8 (size before relaxing)
 .debug_str     0x00000000000021d5       0x3e c:/altera/15.0/nios2eds/bin/gnu/h-x86_64-mingw32/bin/../lib/gcc/nios2-elf/4.9.1/../../../../../H-x86_64-mingw32/nios2-elf/lib\libm.a(lib_a-s_lib_ver.o)
                                        0x1f7 (size before relaxing)
 .debug_str     0x0000000000002213       0x3e c:/altera/15.0/nios2eds/bin/gnu/h-x86_64-mingw32/bin/../lib/gcc/nios2-elf/4.9.1/../../../../../H-x86_64-mingw32/nios2-elf/lib\libm.a(lib_a-s_matherr.o)
                                        0x1c9 (size before relaxing)
 .debug_str     0x0000000000002251      0x16b c:/altera/15.0/nios2eds/bin/gnu/h-x86_64-mingw32/bin/../lib/gcc/nios2-elf/4.9.1\libgcc.a(lib2-divmod.o)
                                        0x1b6 (size before relaxing)
 .debug_str     0x00000000000023bc       0xcc c:/altera/15.0/nios2eds/bin/gnu/h-x86_64-mingw32/bin/../lib/gcc/nios2-elf/4.9.1\libgcc.a(adddf3.o)
                                        0x248 (size before relaxing)
 .debug_str     0x0000000000002488       0xd0 c:/altera/15.0/nios2eds/bin/gnu/h-x86_64-mingw32/bin/../lib/gcc/nios2-elf/4.9.1\libgcc.a(divdf3.o)
                                        0x289 (size before relaxing)
 .debug_str     0x0000000000002558       0x4c c:/altera/15.0/nios2eds/bin/gnu/h-x86_64-mingw32/bin/../lib/gcc/nios2-elf/4.9.1\libgcc.a(ledf2.o)
                                        0x1fb (size before relaxing)
 .debug_str     0x00000000000025a4       0x8d c:/altera/15.0/nios2eds/bin/gnu/h-x86_64-mingw32/bin/../lib/gcc/nios2-elf/4.9.1\libgcc.a(muldf3.o)
                                        0x2a1 (size before relaxing)
 .debug_str     0x0000000000002631       0x36 c:/altera/15.0/nios2eds/bin/gnu/h-x86_64-mingw32/bin/../lib/gcc/nios2-elf/4.9.1\libgcc.a(subdf3.o)
                                        0x248 (size before relaxing)
 .debug_str     0x0000000000002667       0x40 c:/altera/15.0/nios2eds/bin/gnu/h-x86_64-mingw32/bin/../lib/gcc/nios2-elf/4.9.1\libgcc.a(fixdfsi.o)
                                        0x1f4 (size before relaxing)
 .debug_str     0x00000000000026a7       0x49 c:/altera/15.0/nios2eds/bin/gnu/h-x86_64-mingw32/bin/../lib/gcc/nios2-elf/4.9.1\libgcc.a(floatsidf.o)
                                        0x1f8 (size before relaxing)
 .debug_str     0x00000000000026f0       0x63 c:/altera/15.0/nios2eds/bin/gnu/h-x86_64-mingw32/bin/../lib/gcc/nios2-elf/4.9.1\libgcc.a(_clzsi2.o)
                                        0x1d8 (size before relaxing)
 .debug_str     0x0000000000000000      0x1bb c:/altera/15.0/nios2eds/bin/gnu/h-x86_64-mingw32/bin/../lib/gcc/nios2-elf/4.9.1\libgcc.a(_clz.o)
 .debug_str     0x0000000000002753      0x3fa c:/altera/15.0/nios2eds/bin/gnu/h-x86_64-mingw32/bin/../lib/gcc/nios2-elf/4.9.1/../../../../../H-x86_64-mingw32/nios2-elf/lib\libc.a(lib_a-errno.o)
                                        0x540 (size before relaxing)
 .debug_str     0x0000000000002b4d       0xdc c:/altera/15.0/nios2eds/bin/gnu/h-x86_64-mingw32/bin/../lib/gcc/nios2-elf/4.9.1/../../../../../H-x86_64-mingw32/nios2-elf/lib\libc.a(lib_a-impure.o)
                                        0x558 (size before relaxing)
 .debug_str     0x0000000000002c29       0xdd c:/altera/15.0/nios2eds/bin/gnu/h-x86_64-mingw32/bin/../lib/gcc/nios2-elf/4.9.1/../../../../../H-x86_64-mingw32/nios2-elf/lib\libc.a(lib_a-malloc.o)
                                        0x56c (size before relaxing)
 .debug_str     0x0000000000002d06      0x228 c:/altera/15.0/nios2eds/bin/gnu/h-x86_64-mingw32/bin/../lib/gcc/nios2-elf/4.9.1/../../../../../H-x86_64-mingw32/nios2-elf/lib\libc.a(lib_a-mallocr.o)
                                        0x767 (size before relaxing)
 .debug_str     0x0000000000002f2e       0xed c:/altera/15.0/nios2eds/bin/gnu/h-x86_64-mingw32/bin/../lib/gcc/nios2-elf/4.9.1/../../../../../H-x86_64-mingw32/nios2-elf/lib\libc.a(lib_a-memcpy.o)
                                        0x1b5 (size before relaxing)
 .debug_str     0x000000000000301b       0x4f c:/altera/15.0/nios2eds/bin/gnu/h-x86_64-mingw32/bin/../lib/gcc/nios2-elf/4.9.1/../../../../../H-x86_64-mingw32/nios2-elf/lib\libc.a(lib_a-memset.o)
                                        0x1a2 (size before relaxing)
 .debug_str     0x000000000000306a      0x113 c:/altera/15.0/nios2eds/bin/gnu/h-x86_64-mingw32/bin/../lib/gcc/nios2-elf/4.9.1/../../../../../H-x86_64-mingw32/nios2-elf/lib\libc.a(lib_a-printf.o)
                                        0x5a3 (size before relaxing)
 .debug_str     0x000000000000317d       0x95 c:/altera/15.0/nios2eds/bin/gnu/h-x86_64-mingw32/bin/../lib/gcc/nios2-elf/4.9.1/../../../../../H-x86_64-mingw32/nios2-elf/lib\libc.a(lib_a-puts.o)
                                        0x5a0 (size before relaxing)
 .debug_str     0x0000000000003212       0x3e c:/altera/15.0/nios2eds/bin/gnu/h-x86_64-mingw32/bin/../lib/gcc/nios2-elf/4.9.1/../../../../../H-x86_64-mingw32/nios2-elf/lib\libc.a(lib_a-sbrkr.o)
                                        0x54e (size before relaxing)
 .debug_str     0x0000000000003250       0x42 c:/altera/15.0/nios2eds/bin/gnu/h-x86_64-mingw32/bin/../lib/gcc/nios2-elf/4.9.1/../../../../../H-x86_64-mingw32/nios2-elf/lib\libc.a(lib_a-strcpy.o)
                                        0x1a9 (size before relaxing)
 .debug_str     0x0000000000003292       0x3b c:/altera/15.0/nios2eds/bin/gnu/h-x86_64-mingw32/bin/../lib/gcc/nios2-elf/4.9.1/../../../../../H-x86_64-mingw32/nios2-elf/lib\libc.a(lib_a-strlen.o)
                                        0x1a1 (size before relaxing)
 .debug_str     0x00000000000032cd      0x2c5 c:/altera/15.0/nios2eds/bin/gnu/h-x86_64-mingw32/bin/../lib/gcc/nios2-elf/4.9.1/../../../../../H-x86_64-mingw32/nios2-elf/lib\libc.a(lib_a-vfprintf.o)
                                        0x937 (size before relaxing)
 .debug_str     0x0000000000003592       0x47 c:/altera/15.0/nios2eds/bin/gnu/h-x86_64-mingw32/bin/../lib/gcc/nios2-elf/4.9.1/../../../../../H-x86_64-mingw32/nios2-elf/lib\libc.a(lib_a-wsetup.o)
                                        0x567 (size before relaxing)
 .debug_str     0x00000000000035d9      0x151 c:/altera/15.0/nios2eds/bin/gnu/h-x86_64-mingw32/bin/../lib/gcc/nios2-elf/4.9.1/../../../../../H-x86_64-mingw32/nios2-elf/lib\libc.a(lib_a-dtoa.o)
                                        0x6aa (size before relaxing)
 .debug_str     0x000000000000372a       0x52 c:/altera/15.0/nios2eds/bin/gnu/h-x86_64-mingw32/bin/../lib/gcc/nios2-elf/4.9.1/../../../../../H-x86_64-mingw32/nios2-elf/lib\libc.a(lib_a-fflush.o)
                                        0x597 (size before relaxing)
 .debug_str     0x000000000000377c       0xfa c:/altera/15.0/nios2eds/bin/gnu/h-x86_64-mingw32/bin/../lib/gcc/nios2-elf/4.9.1/../../../../../H-x86_64-mingw32/nios2-elf/lib\libc.a(lib_a-findfp.o)
                                        0x651 (size before relaxing)
 .debug_str     0x0000000000003876       0x34 c:/altera/15.0/nios2eds/bin/gnu/h-x86_64-mingw32/bin/../lib/gcc/nios2-elf/4.9.1/../../../../../H-x86_64-mingw32/nios2-elf/lib\libc.a(lib_a-freer.o)
                                        0x6b1 (size before relaxing)
 .debug_str     0x00000000000038aa       0x6c c:/altera/15.0/nios2eds/bin/gnu/h-x86_64-mingw32/bin/../lib/gcc/nios2-elf/4.9.1/../../../../../H-x86_64-mingw32/nios2-elf/lib\libc.a(lib_a-fvwrite.o)
                                        0x5ea (size before relaxing)
 .debug_str     0x0000000000003916       0x5e c:/altera/15.0/nios2eds/bin/gnu/h-x86_64-mingw32/bin/../lib/gcc/nios2-elf/4.9.1/../../../../../H-x86_64-mingw32/nios2-elf/lib\libc.a(lib_a-fwalk.o)
                                        0x599 (size before relaxing)
 .debug_str     0x0000000000003974       0x3d c:/altera/15.0/nios2eds/bin/gnu/h-x86_64-mingw32/bin/../lib/gcc/nios2-elf/4.9.1/../../../../../H-x86_64-mingw32/nios2-elf/lib\libc.a(lib_a-int_errno.o)
                                        0x187 (size before relaxing)
 .debug_str     0x00000000000039b1      0x1a6 c:/altera/15.0/nios2eds/bin/gnu/h-x86_64-mingw32/bin/../lib/gcc/nios2-elf/4.9.1/../../../../../H-x86_64-mingw32/nios2-elf/lib\libc.a(lib_a-locale.o)
                                        0x7b5 (size before relaxing)
 .debug_str     0x0000000000003b57      0x129 c:/altera/15.0/nios2eds/bin/gnu/h-x86_64-mingw32/bin/../lib/gcc/nios2-elf/4.9.1/../../../../../H-x86_64-mingw32/nios2-elf/lib\libc.a(lib_a-makebuf.o)
                                        0x661 (size before relaxing)
 .debug_str     0x0000000000003c80       0x49 c:/altera/15.0/nios2eds/bin/gnu/h-x86_64-mingw32/bin/../lib/gcc/nios2-elf/4.9.1/../../../../../H-x86_64-mingw32/nios2-elf/lib\libc.a(lib_a-memchr.o)
                                        0x1a8 (size before relaxing)
 .debug_str     0x0000000000003cc9       0x45 c:/altera/15.0/nios2eds/bin/gnu/h-x86_64-mingw32/bin/../lib/gcc/nios2-elf/4.9.1/../../../../../H-x86_64-mingw32/nios2-elf/lib\libc.a(lib_a-memmove.o)
                                        0x1c1 (size before relaxing)
 .debug_str     0x0000000000003d0e       0xa5 c:/altera/15.0/nios2eds/bin/gnu/h-x86_64-mingw32/bin/../lib/gcc/nios2-elf/4.9.1/../../../../../H-x86_64-mingw32/nios2-elf/lib\libc.a(lib_a-mprec.o)
                                        0x664 (size before relaxing)
 .debug_str     0x0000000000003db3       0x49 c:/altera/15.0/nios2eds/bin/gnu/h-x86_64-mingw32/bin/../lib/gcc/nios2-elf/4.9.1/../../../../../H-x86_64-mingw32/nios2-elf/lib\libc.a(lib_a-reallocr.o)
                                        0x639 (size before relaxing)
 .debug_str     0x0000000000003dfc       0x99 c:/altera/15.0/nios2eds/bin/gnu/h-x86_64-mingw32/bin/../lib/gcc/nios2-elf/4.9.1/../../../../../H-x86_64-mingw32/nios2-elf/lib\libc.a(lib_a-stdio.o)
                                        0x5b2 (size before relaxing)
 .debug_str     0x0000000000003e95       0x3b c:/altera/15.0/nios2eds/bin/gnu/h-x86_64-mingw32/bin/../lib/gcc/nios2-elf/4.9.1/../../../../../H-x86_64-mingw32/nios2-elf/lib\libc.a(lib_a-strcmp.o)
                                        0x187 (size before relaxing)
 .debug_str     0x0000000000003ed0       0x3f c:/altera/15.0/nios2eds/bin/gnu/h-x86_64-mingw32/bin/../lib/gcc/nios2-elf/4.9.1/../../../../../H-x86_64-mingw32/nios2-elf/lib\libc.a(lib_a-vfiprintf.o)
                                        0x729 (size before relaxing)
 .debug_str     0x0000000000003f0f       0x3a c:/altera/15.0/nios2eds/bin/gnu/h-x86_64-mingw32/bin/../lib/gcc/nios2-elf/4.9.1/../../../../../H-x86_64-mingw32/nios2-elf/lib\libc.a(lib_a-writer.o)
                                        0x552 (size before relaxing)
 .debug_str     0x0000000000003f49       0x3a c:/altera/15.0/nios2eds/bin/gnu/h-x86_64-mingw32/bin/../lib/gcc/nios2-elf/4.9.1/../../../../../H-x86_64-mingw32/nios2-elf/lib\libc.a(closer.o)
                                        0x542 (size before relaxing)
 .debug_str     0x0000000000003f83        0xf c:/altera/15.0/nios2eds/bin/gnu/h-x86_64-mingw32/bin/../lib/gcc/nios2-elf/4.9.1/../../../../../H-x86_64-mingw32/nios2-elf/lib\libc.a(lib_a-callocr.o)
                                        0x591 (size before relaxing)
 .debug_str     0x0000000000003f92       0x4b c:/altera/15.0/nios2eds/bin/gnu/h-x86_64-mingw32/bin/../lib/gcc/nios2-elf/4.9.1/../../../../../H-x86_64-mingw32/nios2-elf/lib\libc.a(lib_a-fclose.o)
                                        0x594 (size before relaxing)
 .debug_str     0x0000000000003fdd       0x58 c:/altera/15.0/nios2eds/bin/gnu/h-x86_64-mingw32/bin/../lib/gcc/nios2-elf/4.9.1/../../../../../H-x86_64-mingw32/nios2-elf/lib\libc.a(lib_a-fputwc.o)
                                        0x5a2 (size before relaxing)
 .debug_str     0x0000000000004035       0x46 c:/altera/15.0/nios2eds/bin/gnu/h-x86_64-mingw32/bin/../lib/gcc/nios2-elf/4.9.1/../../../../../H-x86_64-mingw32/nios2-elf/lib\libc.a(lib_a-fstatr.o)
                                        0x635 (size before relaxing)
 .debug_str     0x000000000000407b       0x42 c:/altera/15.0/nios2eds/bin/gnu/h-x86_64-mingw32/bin/../lib/gcc/nios2-elf/4.9.1/../../../../../H-x86_64-mingw32/nios2-elf/lib\libc.a(lib_a-isattyr.o)
                                        0x545 (size before relaxing)
 .debug_str     0x00000000000040bd       0x40 c:/altera/15.0/nios2eds/bin/gnu/h-x86_64-mingw32/bin/../lib/gcc/nios2-elf/4.9.1/../../../../../H-x86_64-mingw32/nios2-elf/lib\libc.a(lib_a-lseekr.o)
                                        0x556 (size before relaxing)
 .debug_str     0x00000000000040fd       0x39 c:/altera/15.0/nios2eds/bin/gnu/h-x86_64-mingw32/bin/../lib/gcc/nios2-elf/4.9.1/../../../../../H-x86_64-mingw32/nios2-elf/lib\libc.a(lib_a-readr.o)
                                        0x54f (size before relaxing)
 .debug_str     0x0000000000004136       0x40 c:/altera/15.0/nios2eds/bin/gnu/h-x86_64-mingw32/bin/../lib/gcc/nios2-elf/4.9.1/../../../../../H-x86_64-mingw32/nios2-elf/lib\libc.a(lib_a-wbuf.o)
                                        0x56c (size before relaxing)
 .debug_str     0x0000000000004176       0x4d c:/altera/15.0/nios2eds/bin/gnu/h-x86_64-mingw32/bin/../lib/gcc/nios2-elf/4.9.1/../../../../../H-x86_64-mingw32/nios2-elf/lib\libc.a(lib_a-wcrtomb.o)
                                        0x589 (size before relaxing)
 .debug_str     0x00000000000041c3       0x5d c:/altera/15.0/nios2eds/bin/gnu/h-x86_64-mingw32/bin/../lib/gcc/nios2-elf/4.9.1/../../../../../H-x86_64-mingw32/nios2-elf/lib\libc.a(lib_a-wctomb_r.o)
                                        0x598 (size before relaxing)
 .debug_str     0x0000000000004220       0xca c:/altera/15.0/nios2eds/bin/gnu/h-x86_64-mingw32/bin/../lib/gcc/nios2-elf/4.9.1\libgcc.a(_udivdi3.o)
                                        0x274 (size before relaxing)
 .debug_str     0x00000000000042ea        0xa c:/altera/15.0/nios2eds/bin/gnu/h-x86_64-mingw32/bin/../lib/gcc/nios2-elf/4.9.1\libgcc.a(_umoddi3.o)
                                        0x274 (size before relaxing)
 .debug_str     0x00000000000042f4       0x34 c:/altera/15.0/nios2eds/bin/gnu/h-x86_64-mingw32/bin/../lib/gcc/nios2-elf/4.9.1\libgcc.a(eqdf2.o)
                                        0x1e3 (size before relaxing)
 .debug_str     0x0000000000004328       0x34 c:/altera/15.0/nios2eds/bin/gnu/h-x86_64-mingw32/bin/../lib/gcc/nios2-elf/4.9.1\libgcc.a(gedf2.o)
                                        0x1fb (size before relaxing)
 .debug_str     0x000000000000435c       0x40 c:/altera/15.0/nios2eds/bin/gnu/h-x86_64-mingw32/bin/../lib/gcc/nios2-elf/4.9.1\libgcc.a(floatunsidf.o)
                                        0x1f5 (size before relaxing)
 .debug_str     0x000000000000439c       0xd1 ../LT24_final_sw_bsp/\libucosii_bsp.a(alt_alarm_start.o)
                                        0x25f (size before relaxing)
 .debug_str     0x000000000000446d       0x74 ../LT24_final_sw_bsp/\libucosii_bsp.a(alt_close.o)
                                        0x21c (size before relaxing)
 .debug_str     0x00000000000044e1       0x61 ../LT24_final_sw_bsp/\libucosii_bsp.a(alt_dev.o)
                                        0x38a (size before relaxing)
 .debug_str     0x0000000000004542       0x14 ../LT24_final_sw_bsp/\libucosii_bsp.a(alt_errno.o)
                                        0x126 (size before relaxing)
 .debug_str     0x0000000000004556       0x14 ../LT24_final_sw_bsp/\libucosii_bsp.a(alt_fstat.o)
                                        0x2fd (size before relaxing)
 .debug_str     0x000000000000456a       0xbd ../LT24_final_sw_bsp/\libucosii_bsp.a(alt_iic.o)
                                        0x21f (size before relaxing)
 .debug_str     0x0000000000004627       0x4c ../LT24_final_sw_bsp/\libucosii_bsp.a(alt_iic_isr_register.o)
                                        0x1c9 (size before relaxing)
 .debug_str     0x0000000000004673       0x3a ../LT24_final_sw_bsp/\libucosii_bsp.a(alt_irq_handler.o)
                                        0x1a0 (size before relaxing)
 .debug_str     0x00000000000046ad       0x17 ../LT24_final_sw_bsp/\libucosii_bsp.a(alt_irq_vars.o)
                                        0x127 (size before relaxing)
 .debug_str     0x00000000000046c4       0x15 ../LT24_final_sw_bsp/\libucosii_bsp.a(alt_isatty.o)
                                        0x305 (size before relaxing)
 .debug_str     0x00000000000046d9       0xe9 ../LT24_final_sw_bsp/\libucosii_bsp.a(alt_load.o)
                                        0x1f3 (size before relaxing)
 .debug_str     0x00000000000047c2       0x14 ../LT24_final_sw_bsp/\libucosii_bsp.a(alt_lseek.o)
                                        0x222 (size before relaxing)
 .debug_str     0x00000000000047d6       0x5d ../LT24_final_sw_bsp/\libucosii_bsp.a(alt_main.o)
                                        0x241 (size before relaxing)
 .debug_str     0x0000000000004833       0x13 ../LT24_final_sw_bsp/\libucosii_bsp.a(alt_read.o)
                                        0x308 (size before relaxing)
 .debug_str     0x0000000000004846       0x28 ../LT24_final_sw_bsp/\libucosii_bsp.a(alt_release_fd.o)
                                        0x206 (size before relaxing)
 .debug_str     0x000000000000486e       0x61 ../LT24_final_sw_bsp/\libucosii_bsp.a(alt_sbrk.o)
                                        0x1b5 (size before relaxing)
 .debug_str     0x00000000000048cf       0x4a ../LT24_final_sw_bsp/\libucosii_bsp.a(alt_tick.o)
                                        0x240 (size before relaxing)
 .debug_str     0x0000000000004919       0x39 ../LT24_final_sw_bsp/\libucosii_bsp.a(alt_usleep.o)
                                        0x197 (size before relaxing)
 .debug_str     0x0000000000004952       0x14 ../LT24_final_sw_bsp/\libucosii_bsp.a(alt_write.o)
                                        0x309 (size before relaxing)
 .debug_str     0x0000000000004966      0x246 ../LT24_final_sw_bsp/\libucosii_bsp.a(alt_env_lock.o)
                                        0x7a2 (size before relaxing)
 .debug_str     0x0000000000004bac       0x24 ../LT24_final_sw_bsp/\libucosii_bsp.a(alt_malloc_lock.o)
                                        0x804 (size before relaxing)
 .debug_str     0x0000000000004bd0      0x531 ../LT24_final_sw_bsp/\libucosii_bsp.a(os_core.o)
                                        0x937 (size before relaxing)
 .debug_str     0x0000000000005101      0x2e5 ../LT24_final_sw_bsp/\libucosii_bsp.a(os_dbg.o)
                                        0x8a6 (size before relaxing)
 .debug_str     0x00000000000053e6      0x136 ../LT24_final_sw_bsp/\libucosii_bsp.a(os_flag.o)
                                        0x5d3 (size before relaxing)
 .debug_str     0x000000000000551c       0xbd ../LT24_final_sw_bsp/\libucosii_bsp.a(os_mbox.o)
                                        0x4f4 (size before relaxing)
 .debug_str     0x00000000000055d9       0xcf ../LT24_final_sw_bsp/\libucosii_bsp.a(os_mem.o)
                                        0x2dc (size before relaxing)
 .debug_str     0x00000000000056a8       0xc2 ../LT24_final_sw_bsp/\libucosii_bsp.a(os_mutex.o)
                                        0x533 (size before relaxing)
 .debug_str     0x000000000000576a       0xa2 ../LT24_final_sw_bsp/\libucosii_bsp.a(os_q.o)
                                        0x556 (size before relaxing)
 .debug_str     0x000000000000580c       0x77 ../LT24_final_sw_bsp/\libucosii_bsp.a(os_sem.o)
                                        0x4df (size before relaxing)
 .debug_str     0x0000000000005883      0x118 ../LT24_final_sw_bsp/\libucosii_bsp.a(os_task.o)
                                        0x5e2 (size before relaxing)
 .debug_str     0x000000000000599b       0x67 ../LT24_final_sw_bsp/\libucosii_bsp.a(os_time.o)
                                        0x482 (size before relaxing)
 .debug_str     0x0000000000005a02      0x166 ../LT24_final_sw_bsp/\libucosii_bsp.a(alt_sys_init.o)
                                        0x45f (size before relaxing)
 .debug_str     0x0000000000005b68       0xac ../LT24_final_sw_bsp/\libucosii_bsp.a(altera_avalon_jtag_uart_fd.o)
                                        0x475 (size before relaxing)
 .debug_str     0x0000000000005c14       0xe1 ../LT24_final_sw_bsp/\libucosii_bsp.a(altera_avalon_jtag_uart_init.o)
                                        0x43c (size before relaxing)
 .debug_str     0x0000000000005cf5       0x4a ../LT24_final_sw_bsp/\libucosii_bsp.a(altera_avalon_jtag_uart_ioctl.o)
                                        0x364 (size before relaxing)
 .debug_str     0x0000000000005d3f       0x63 ../LT24_final_sw_bsp/\libucosii_bsp.a(altera_avalon_jtag_uart_read.o)
                                        0x3d7 (size before relaxing)
 .debug_str     0x0000000000005da2       0x4a ../LT24_final_sw_bsp/\libucosii_bsp.a(altera_avalon_jtag_uart_write.o)
                                        0x3d8 (size before relaxing)
 .debug_str     0x0000000000005dec       0xa5 ../LT24_final_sw_bsp/\libucosii_bsp.a(altera_avalon_spi.o)
                                        0x1c1 (size before relaxing)
 .debug_str     0x0000000000005e91       0x66 ../LT24_final_sw_bsp/\libucosii_bsp.a(altera_avalon_timer_sc.o)
                                        0x22c (size before relaxing)
 .debug_str     0x0000000000005ef7       0x42 ../LT24_final_sw_bsp/\libucosii_bsp.a(alt_busy_sleep.o)
                                        0x14c (size before relaxing)
 .debug_str     0x0000000000005f39       0x34 ../LT24_final_sw_bsp/\libucosii_bsp.a(alt_dcache_flush_all.o)
                                        0x136 (size before relaxing)
 .debug_str     0x0000000000005f6d       0x34 ../LT24_final_sw_bsp/\libucosii_bsp.a(alt_dev_llist_insert.o)
                                        0x1ad (size before relaxing)
 .debug_str     0x0000000000005fa1       0x48 ../LT24_final_sw_bsp/\libucosii_bsp.a(alt_do_ctors.o)
                                         0xbd (size before relaxing)
 .debug_str     0x0000000000005fe9       0x4c ../LT24_final_sw_bsp/\libucosii_bsp.a(alt_do_dtors.o)
                                         0xbc (size before relaxing)
 .debug_str     0x0000000000006035       0x34 ../LT24_final_sw_bsp/\libucosii_bsp.a(alt_icache_flush_all.o)
                                        0x136 (size before relaxing)
 .debug_str     0x0000000000006069       0x56 ../LT24_final_sw_bsp/\libucosii_bsp.a(alt_io_redirect.o)
                                        0x327 (size before relaxing)
 .debug_str     0x00000000000060bf       0x29 ../LT24_final_sw_bsp/\libucosii_bsp.a(alt_open.o)
                                        0x254 (size before relaxing)
 .debug_str     0x00000000000060e8       0x3b ../LT24_final_sw_bsp/\libucosii_bsp.a(altera_nios2_qsys_irq.o)
                                        0x13d (size before relaxing)
 .debug_str     0x0000000000006123       0xd5 ../LT24_final_sw_bsp/\libucosii_bsp.a(os_cpu_c.o)
                                        0x817 (size before relaxing)
 .debug_str     0x00000000000061f8       0x24 ../LT24_final_sw_bsp/\libucosii_bsp.a(alt_find_dev.o)
                                        0x1fd (size before relaxing)
 .debug_str     0x000000000000621c       0x26 ../LT24_final_sw_bsp/\libucosii_bsp.a(alt_find_file.o)
                                        0x20b (size before relaxing)
 .debug_str     0x0000000000006242       0x30 ../LT24_final_sw_bsp/\libucosii_bsp.a(alt_get_fd.o)
                                        0x2a9 (size before relaxing)
 .debug_str     0x0000000000006272       0x2c ../LT24_final_sw_bsp/\libucosii_bsp.a(alt_icache_flush.o)
                                        0x13c (size before relaxing)
 .debug_str     0x000000000000629e       0x7f c:/altera/15.0/nios2eds/bin/gnu/h-x86_64-mingw32/bin/../lib/gcc/nios2-elf/4.9.1/../../../../../H-x86_64-mingw32/nios2-elf/lib\libc.a(lib_a-atexit.o)
                                        0x1cb (size before relaxing)
 .debug_str     0x000000000000631d       0x4a c:/altera/15.0/nios2eds/bin/gnu/h-x86_64-mingw32/bin/../lib/gcc/nios2-elf/4.9.1/../../../../../H-x86_64-mingw32/nios2-elf/lib\libc.a(lib_a-exit.o)
                                        0x561 (size before relaxing)
 .debug_str     0x0000000000006367       0x42 c:/altera/15.0/nios2eds/bin/gnu/h-x86_64-mingw32/bin/../lib/gcc/nios2-elf/4.9.1/../../../../../H-x86_64-mingw32/nios2-elf/lib\libc.a(lib_a-memcmp.o)
                                        0x18e (size before relaxing)
 .debug_str     0x00000000000063a9       0x4b c:/altera/15.0/nios2eds/bin/gnu/h-x86_64-mingw32/bin/../lib/gcc/nios2-elf/4.9.1/../../../../../H-x86_64-mingw32/nios2-elf/lib\libc.a(lib_a-__atexit.o)
                                        0x5ae (size before relaxing)
 .debug_str     0x00000000000063f4       0x50 c:/altera/15.0/nios2eds/bin/gnu/h-x86_64-mingw32/bin/../lib/gcc/nios2-elf/4.9.1/../../../../../H-x86_64-mingw32/nios2-elf/lib\libc.a(lib_a-__call_atexit.o)
                                        0x577 (size before relaxing)
 .debug_str     0x0000000000006444       0x2a ../LT24_final_sw_bsp/\libucosii_bsp.a(alt_exit.o)
                                        0x174 (size before relaxing)

.debug_loc      0x0000000000000000    0x17428
 *(.debug_loc)
 .debug_loc     0x0000000000000000       0x60 c:/altera/15.0/nios2eds/bin/gnu/h-x86_64-mingw32/bin/../lib/gcc/nios2-elf/4.9.1/../../../../../H-x86_64-mingw32/nios2-elf/lib\libm.a(lib_a-w_sqrt.o)
 .debug_loc     0x0000000000000060      0x54a c:/altera/15.0/nios2eds/bin/gnu/h-x86_64-mingw32/bin/../lib/gcc/nios2-elf/4.9.1/../../../../../H-x86_64-mingw32/nios2-elf/lib\libm.a(lib_a-e_sqrt.o)
 .debug_loc     0x00000000000005aa       0x2f c:/altera/15.0/nios2eds/bin/gnu/h-x86_64-mingw32/bin/../lib/gcc/nios2-elf/4.9.1/../../../../../H-x86_64-mingw32/nios2-elf/lib\libm.a(lib_a-s_fpclassify.o)
 .debug_loc     0x00000000000005d9      0x273 c:/altera/15.0/nios2eds/bin/gnu/h-x86_64-mingw32/bin/../lib/gcc/nios2-elf/4.9.1\libgcc.a(lib2-divmod.o)
 .debug_loc     0x000000000000084c     0x16ec c:/altera/15.0/nios2eds/bin/gnu/h-x86_64-mingw32/bin/../lib/gcc/nios2-elf/4.9.1\libgcc.a(adddf3.o)
 .debug_loc     0x0000000000001f38     0x1f03 c:/altera/15.0/nios2eds/bin/gnu/h-x86_64-mingw32/bin/../lib/gcc/nios2-elf/4.9.1\libgcc.a(divdf3.o)
 .debug_loc     0x0000000000003e3b       0xfc c:/altera/15.0/nios2eds/bin/gnu/h-x86_64-mingw32/bin/../lib/gcc/nios2-elf/4.9.1\libgcc.a(ledf2.o)
 .debug_loc     0x0000000000003f37     0x107e c:/altera/15.0/nios2eds/bin/gnu/h-x86_64-mingw32/bin/../lib/gcc/nios2-elf/4.9.1\libgcc.a(muldf3.o)
 .debug_loc     0x0000000000004fb5     0x1660 c:/altera/15.0/nios2eds/bin/gnu/h-x86_64-mingw32/bin/../lib/gcc/nios2-elf/4.9.1\libgcc.a(subdf3.o)
 .debug_loc     0x0000000000006615      0x136 c:/altera/15.0/nios2eds/bin/gnu/h-x86_64-mingw32/bin/../lib/gcc/nios2-elf/4.9.1\libgcc.a(fixdfsi.o)
 .debug_loc     0x000000000000674b      0x17f c:/altera/15.0/nios2eds/bin/gnu/h-x86_64-mingw32/bin/../lib/gcc/nios2-elf/4.9.1\libgcc.a(floatsidf.o)
 .debug_loc     0x00000000000068ca       0x7a c:/altera/15.0/nios2eds/bin/gnu/h-x86_64-mingw32/bin/../lib/gcc/nios2-elf/4.9.1\libgcc.a(_clzsi2.o)
 .debug_loc     0x0000000000006944       0x58 c:/altera/15.0/nios2eds/bin/gnu/h-x86_64-mingw32/bin/../lib/gcc/nios2-elf/4.9.1/../../../../../H-x86_64-mingw32/nios2-elf/lib\libc.a(lib_a-malloc.o)
 .debug_loc     0x000000000000699c      0xbad c:/altera/15.0/nios2eds/bin/gnu/h-x86_64-mingw32/bin/../lib/gcc/nios2-elf/4.9.1/../../../../../H-x86_64-mingw32/nios2-elf/lib\libc.a(lib_a-mallocr.o)
 .debug_loc     0x0000000000007549      0x2a2 c:/altera/15.0/nios2eds/bin/gnu/h-x86_64-mingw32/bin/../lib/gcc/nios2-elf/4.9.1/../../../../../H-x86_64-mingw32/nios2-elf/lib\libc.a(lib_a-memcpy.o)
 .debug_loc     0x00000000000077eb      0x190 c:/altera/15.0/nios2eds/bin/gnu/h-x86_64-mingw32/bin/../lib/gcc/nios2-elf/4.9.1/../../../../../H-x86_64-mingw32/nios2-elf/lib\libc.a(lib_a-memset.o)
 .debug_loc     0x000000000000797b       0xd3 c:/altera/15.0/nios2eds/bin/gnu/h-x86_64-mingw32/bin/../lib/gcc/nios2-elf/4.9.1/../../../../../H-x86_64-mingw32/nios2-elf/lib\libc.a(lib_a-printf.o)
 .debug_loc     0x0000000000007a4e       0xb9 c:/altera/15.0/nios2eds/bin/gnu/h-x86_64-mingw32/bin/../lib/gcc/nios2-elf/4.9.1/../../../../../H-x86_64-mingw32/nios2-elf/lib\libc.a(lib_a-puts.o)
 .debug_loc     0x0000000000007b07       0x58 c:/altera/15.0/nios2eds/bin/gnu/h-x86_64-mingw32/bin/../lib/gcc/nios2-elf/4.9.1/../../../../../H-x86_64-mingw32/nios2-elf/lib\libc.a(lib_a-sbrkr.o)
 .debug_loc     0x0000000000007b5f       0xe8 c:/altera/15.0/nios2eds/bin/gnu/h-x86_64-mingw32/bin/../lib/gcc/nios2-elf/4.9.1/../../../../../H-x86_64-mingw32/nios2-elf/lib\libc.a(lib_a-strcpy.o)
 .debug_loc     0x0000000000007c47       0x47 c:/altera/15.0/nios2eds/bin/gnu/h-x86_64-mingw32/bin/../lib/gcc/nios2-elf/4.9.1/../../../../../H-x86_64-mingw32/nios2-elf/lib\libc.a(lib_a-strlen.o)
 .debug_loc     0x0000000000007c8e     0x2d0e c:/altera/15.0/nios2eds/bin/gnu/h-x86_64-mingw32/bin/../lib/gcc/nios2-elf/4.9.1/../../../../../H-x86_64-mingw32/nios2-elf/lib\libc.a(lib_a-vfprintf.o)
 .debug_loc     0x000000000000a99c       0x84 c:/altera/15.0/nios2eds/bin/gnu/h-x86_64-mingw32/bin/../lib/gcc/nios2-elf/4.9.1/../../../../../H-x86_64-mingw32/nios2-elf/lib\libc.a(lib_a-wsetup.o)
 .debug_loc     0x000000000000aa20     0x299a c:/altera/15.0/nios2eds/bin/gnu/h-x86_64-mingw32/bin/../lib/gcc/nios2-elf/4.9.1/../../../../../H-x86_64-mingw32/nios2-elf/lib\libc.a(lib_a-dtoa.o)
 .debug_loc     0x000000000000d3ba      0x23e c:/altera/15.0/nios2eds/bin/gnu/h-x86_64-mingw32/bin/../lib/gcc/nios2-elf/4.9.1/../../../../../H-x86_64-mingw32/nios2-elf/lib\libc.a(lib_a-fflush.o)
 .debug_loc     0x000000000000d5f8      0x208 c:/altera/15.0/nios2eds/bin/gnu/h-x86_64-mingw32/bin/../lib/gcc/nios2-elf/4.9.1/../../../../../H-x86_64-mingw32/nios2-elf/lib\libc.a(lib_a-findfp.o)
 .debug_loc     0x000000000000d800      0x4d3 c:/altera/15.0/nios2eds/bin/gnu/h-x86_64-mingw32/bin/../lib/gcc/nios2-elf/4.9.1/../../../../../H-x86_64-mingw32/nios2-elf/lib\libc.a(lib_a-freer.o)
 .debug_loc     0x000000000000dcd3      0x5ca c:/altera/15.0/nios2eds/bin/gnu/h-x86_64-mingw32/bin/../lib/gcc/nios2-elf/4.9.1/../../../../../H-x86_64-mingw32/nios2-elf/lib\libc.a(lib_a-fvwrite.o)
 .debug_loc     0x000000000000e29d      0x2d4 c:/altera/15.0/nios2eds/bin/gnu/h-x86_64-mingw32/bin/../lib/gcc/nios2-elf/4.9.1/../../../../../H-x86_64-mingw32/nios2-elf/lib\libc.a(lib_a-fwalk.o)
 .debug_loc     0x000000000000e571      0x11b c:/altera/15.0/nios2eds/bin/gnu/h-x86_64-mingw32/bin/../lib/gcc/nios2-elf/4.9.1/../../../../../H-x86_64-mingw32/nios2-elf/lib\libc.a(lib_a-locale.o)
 .debug_loc     0x000000000000e68c      0x132 c:/altera/15.0/nios2eds/bin/gnu/h-x86_64-mingw32/bin/../lib/gcc/nios2-elf/4.9.1/../../../../../H-x86_64-mingw32/nios2-elf/lib\libc.a(lib_a-makebuf.o)
 .debug_loc     0x000000000000e7be      0x19f c:/altera/15.0/nios2eds/bin/gnu/h-x86_64-mingw32/bin/../lib/gcc/nios2-elf/4.9.1/../../../../../H-x86_64-mingw32/nios2-elf/lib\libc.a(lib_a-memchr.o)
 .debug_loc     0x000000000000e95d      0x34f c:/altera/15.0/nios2eds/bin/gnu/h-x86_64-mingw32/bin/../lib/gcc/nios2-elf/4.9.1/../../../../../H-x86_64-mingw32/nios2-elf/lib\libc.a(lib_a-memmove.o)
 .debug_loc     0x000000000000ecac     0x1a3e c:/altera/15.0/nios2eds/bin/gnu/h-x86_64-mingw32/bin/../lib/gcc/nios2-elf/4.9.1/../../../../../H-x86_64-mingw32/nios2-elf/lib\libc.a(lib_a-mprec.o)
 .debug_loc     0x00000000000106ea      0xe5b c:/altera/15.0/nios2eds/bin/gnu/h-x86_64-mingw32/bin/../lib/gcc/nios2-elf/4.9.1/../../../../../H-x86_64-mingw32/nios2-elf/lib\libc.a(lib_a-reallocr.o)
 .debug_loc     0x0000000000011545      0x319 c:/altera/15.0/nios2eds/bin/gnu/h-x86_64-mingw32/bin/../lib/gcc/nios2-elf/4.9.1/../../../../../H-x86_64-mingw32/nios2-elf/lib\libc.a(lib_a-stdio.o)
 .debug_loc     0x000000000001185e       0xb0 c:/altera/15.0/nios2eds/bin/gnu/h-x86_64-mingw32/bin/../lib/gcc/nios2-elf/4.9.1/../../../../../H-x86_64-mingw32/nios2-elf/lib\libc.a(lib_a-strcmp.o)
 .debug_loc     0x000000000001190e     0x2340 c:/altera/15.0/nios2eds/bin/gnu/h-x86_64-mingw32/bin/../lib/gcc/nios2-elf/4.9.1/../../../../../H-x86_64-mingw32/nios2-elf/lib\libc.a(lib_a-vfiprintf.o)
 .debug_loc     0x0000000000013c4e       0xb0 c:/altera/15.0/nios2eds/bin/gnu/h-x86_64-mingw32/bin/../lib/gcc/nios2-elf/4.9.1/../../../../../H-x86_64-mingw32/nios2-elf/lib\libc.a(lib_a-writer.o)
 .debug_loc     0x0000000000013cfe       0x58 c:/altera/15.0/nios2eds/bin/gnu/h-x86_64-mingw32/bin/../lib/gcc/nios2-elf/4.9.1/../../../../../H-x86_64-mingw32/nios2-elf/lib\libc.a(closer.o)
 .debug_loc     0x0000000000013d56      0x24b c:/altera/15.0/nios2eds/bin/gnu/h-x86_64-mingw32/bin/../lib/gcc/nios2-elf/4.9.1/../../../../../H-x86_64-mingw32/nios2-elf/lib\libc.a(lib_a-callocr.o)
 .debug_loc     0x0000000000013fa1      0x12b c:/altera/15.0/nios2eds/bin/gnu/h-x86_64-mingw32/bin/../lib/gcc/nios2-elf/4.9.1/../../../../../H-x86_64-mingw32/nios2-elf/lib\libc.a(lib_a-fclose.o)
 .debug_loc     0x00000000000140cc      0x223 c:/altera/15.0/nios2eds/bin/gnu/h-x86_64-mingw32/bin/../lib/gcc/nios2-elf/4.9.1/../../../../../H-x86_64-mingw32/nios2-elf/lib\libc.a(lib_a-fputwc.o)
 .debug_loc     0x00000000000142ef       0x84 c:/altera/15.0/nios2eds/bin/gnu/h-x86_64-mingw32/bin/../lib/gcc/nios2-elf/4.9.1/../../../../../H-x86_64-mingw32/nios2-elf/lib\libc.a(lib_a-fstatr.o)
 .debug_loc     0x0000000000014373       0x58 c:/altera/15.0/nios2eds/bin/gnu/h-x86_64-mingw32/bin/../lib/gcc/nios2-elf/4.9.1/../../../../../H-x86_64-mingw32/nios2-elf/lib\libc.a(lib_a-isattyr.o)
 .debug_loc     0x00000000000143cb       0xb0 c:/altera/15.0/nios2eds/bin/gnu/h-x86_64-mingw32/bin/../lib/gcc/nios2-elf/4.9.1/../../../../../H-x86_64-mingw32/nios2-elf/lib\libc.a(lib_a-lseekr.o)
 .debug_loc     0x000000000001447b       0xb0 c:/altera/15.0/nios2eds/bin/gnu/h-x86_64-mingw32/bin/../lib/gcc/nios2-elf/4.9.1/../../../../../H-x86_64-mingw32/nios2-elf/lib\libc.a(lib_a-readr.o)
 .debug_loc     0x000000000001452b      0x165 c:/altera/15.0/nios2eds/bin/gnu/h-x86_64-mingw32/bin/../lib/gcc/nios2-elf/4.9.1/../../../../../H-x86_64-mingw32/nios2-elf/lib\libc.a(lib_a-wbuf.o)
 .debug_loc     0x0000000000014690      0x230 c:/altera/15.0/nios2eds/bin/gnu/h-x86_64-mingw32/bin/../lib/gcc/nios2-elf/4.9.1/../../../../../H-x86_64-mingw32/nios2-elf/lib\libc.a(lib_a-wcrtomb.o)
 .debug_loc     0x00000000000148c0       0x8f c:/altera/15.0/nios2eds/bin/gnu/h-x86_64-mingw32/bin/../lib/gcc/nios2-elf/4.9.1/../../../../../H-x86_64-mingw32/nios2-elf/lib\libc.a(lib_a-wctomb_r.o)
 .debug_loc     0x000000000001494f     0x11a3 c:/altera/15.0/nios2eds/bin/gnu/h-x86_64-mingw32/bin/../lib/gcc/nios2-elf/4.9.1\libgcc.a(_udivdi3.o)
 .debug_loc     0x0000000000015af2     0x118c c:/altera/15.0/nios2eds/bin/gnu/h-x86_64-mingw32/bin/../lib/gcc/nios2-elf/4.9.1\libgcc.a(_umoddi3.o)
 .debug_loc     0x0000000000016c7e       0x52 c:/altera/15.0/nios2eds/bin/gnu/h-x86_64-mingw32/bin/../lib/gcc/nios2-elf/4.9.1\libgcc.a(eqdf2.o)
 .debug_loc     0x0000000000016cd0      0x109 c:/altera/15.0/nios2eds/bin/gnu/h-x86_64-mingw32/bin/../lib/gcc/nios2-elf/4.9.1\libgcc.a(gedf2.o)
 .debug_loc     0x0000000000016dd9      0x1b4 c:/altera/15.0/nios2eds/bin/gnu/h-x86_64-mingw32/bin/../lib/gcc/nios2-elf/4.9.1\libgcc.a(floatunsidf.o)
 .debug_loc     0x0000000000016f8d       0x2c c:/altera/15.0/nios2eds/bin/gnu/h-x86_64-mingw32/bin/../lib/gcc/nios2-elf/4.9.1/../../../../../H-x86_64-mingw32/nios2-elf/lib\libc.a(lib_a-atexit.o)
 .debug_loc     0x0000000000016fb9       0x1e c:/altera/15.0/nios2eds/bin/gnu/h-x86_64-mingw32/bin/../lib/gcc/nios2-elf/4.9.1/../../../../../H-x86_64-mingw32/nios2-elf/lib\libc.a(lib_a-exit.o)
 .debug_loc     0x0000000000016fd7      0x126 c:/altera/15.0/nios2eds/bin/gnu/h-x86_64-mingw32/bin/../lib/gcc/nios2-elf/4.9.1/../../../../../H-x86_64-mingw32/nios2-elf/lib\libc.a(lib_a-memcmp.o)
 .debug_loc     0x00000000000170fd      0x185 c:/altera/15.0/nios2eds/bin/gnu/h-x86_64-mingw32/bin/../lib/gcc/nios2-elf/4.9.1/../../../../../H-x86_64-mingw32/nios2-elf/lib\libc.a(lib_a-__atexit.o)
 .debug_loc     0x0000000000017282      0x1a6 c:/altera/15.0/nios2eds/bin/gnu/h-x86_64-mingw32/bin/../lib/gcc/nios2-elf/4.9.1/../../../../../H-x86_64-mingw32/nios2-elf/lib\libc.a(lib_a-__call_atexit.o)

.debug_macinfo
 *(.debug_macinfo)

.debug_weaknames
 *(.debug_weaknames)

.debug_funcnames
 *(.debug_funcnames)

.debug_typenames
 *(.debug_typenames)

.debug_varnames
 *(.debug_varnames)

.debug_alt_sim_info
                0x0000000000000000       0x60
 *(.debug_alt_sim_info)
 .debug_alt_sim_info
                0x0000000000000000       0x30 ../LT24_final_sw_bsp//obj/HAL/src/crt0.o
 .debug_alt_sim_info
                0x0000000000000030       0x30 ../LT24_final_sw_bsp/\libucosii_bsp.a(alt_busy_sleep.o)
                0x0000000004000000                __alt_data_end = 0x4000000
                0x0000000004000000                PROVIDE (__alt_stack_pointer, __alt_data_end)
                0x0000000002050bdc                PROVIDE (__alt_stack_limit, __alt_stack_base)
                0x0000000002050bdc                PROVIDE (__alt_heap_start, end)
                0x0000000004000000                PROVIDE (__alt_heap_limit, 0x4000000)
OUTPUT(LT24_final_sw.elf elf32-littlenios2)

.debug_ranges   0x0000000000000000     0x1368
 .debug_ranges  0x0000000000000000       0x20 ../LT24_final_sw_bsp//obj/HAL/src/crt0.o
 .debug_ranges  0x0000000000000020      0x238 c:/altera/15.0/nios2eds/bin/gnu/h-x86_64-mingw32/bin/../lib/gcc/nios2-elf/4.9.1\libgcc.a(adddf3.o)
 .debug_ranges  0x0000000000000258      0x140 c:/altera/15.0/nios2eds/bin/gnu/h-x86_64-mingw32/bin/../lib/gcc/nios2-elf/4.9.1\libgcc.a(divdf3.o)
 .debug_ranges  0x0000000000000398       0x88 c:/altera/15.0/nios2eds/bin/gnu/h-x86_64-mingw32/bin/../lib/gcc/nios2-elf/4.9.1\libgcc.a(ledf2.o)
 .debug_ranges  0x0000000000000420      0x218 c:/altera/15.0/nios2eds/bin/gnu/h-x86_64-mingw32/bin/../lib/gcc/nios2-elf/4.9.1\libgcc.a(muldf3.o)
 .debug_ranges  0x0000000000000638      0x258 c:/altera/15.0/nios2eds/bin/gnu/h-x86_64-mingw32/bin/../lib/gcc/nios2-elf/4.9.1\libgcc.a(subdf3.o)
 .debug_ranges  0x0000000000000890       0x38 c:/altera/15.0/nios2eds/bin/gnu/h-x86_64-mingw32/bin/../lib/gcc/nios2-elf/4.9.1\libgcc.a(fixdfsi.o)
 .debug_ranges  0x00000000000008c8       0x30 c:/altera/15.0/nios2eds/bin/gnu/h-x86_64-mingw32/bin/../lib/gcc/nios2-elf/4.9.1\libgcc.a(floatsidf.o)
 .debug_ranges  0x00000000000008f8       0x18 c:/altera/15.0/nios2eds/bin/gnu/h-x86_64-mingw32/bin/../lib/gcc/nios2-elf/4.9.1\libgcc.a(_clzsi2.o)
 .debug_ranges  0x0000000000000910       0x38 c:/altera/15.0/nios2eds/bin/gnu/h-x86_64-mingw32/bin/../lib/gcc/nios2-elf/4.9.1/../../../../../H-x86_64-mingw32/nios2-elf/lib\libc.a(lib_a-mallocr.o)
 .debug_ranges  0x0000000000000948      0x130 c:/altera/15.0/nios2eds/bin/gnu/h-x86_64-mingw32/bin/../lib/gcc/nios2-elf/4.9.1/../../../../../H-x86_64-mingw32/nios2-elf/lib\libc.a(lib_a-vfprintf.o)
 .debug_ranges  0x0000000000000a78       0x20 c:/altera/15.0/nios2eds/bin/gnu/h-x86_64-mingw32/bin/../lib/gcc/nios2-elf/4.9.1/../../../../../H-x86_64-mingw32/nios2-elf/lib\libc.a(lib_a-fflush.o)
 .debug_ranges  0x0000000000000a98       0x68 c:/altera/15.0/nios2eds/bin/gnu/h-x86_64-mingw32/bin/../lib/gcc/nios2-elf/4.9.1/../../../../../H-x86_64-mingw32/nios2-elf/lib\libc.a(lib_a-findfp.o)
 .debug_ranges  0x0000000000000b00       0x18 c:/altera/15.0/nios2eds/bin/gnu/h-x86_64-mingw32/bin/../lib/gcc/nios2-elf/4.9.1/../../../../../H-x86_64-mingw32/nios2-elf/lib\libc.a(lib_a-fvwrite.o)
 .debug_ranges  0x0000000000000b18       0x40 c:/altera/15.0/nios2eds/bin/gnu/h-x86_64-mingw32/bin/../lib/gcc/nios2-elf/4.9.1/../../../../../H-x86_64-mingw32/nios2-elf/lib\libc.a(lib_a-fwalk.o)
 .debug_ranges  0x0000000000000b58       0x18 c:/altera/15.0/nios2eds/bin/gnu/h-x86_64-mingw32/bin/../lib/gcc/nios2-elf/4.9.1/../../../../../H-x86_64-mingw32/nios2-elf/lib\libc.a(lib_a-locale.o)
 .debug_ranges  0x0000000000000b70       0x50 c:/altera/15.0/nios2eds/bin/gnu/h-x86_64-mingw32/bin/../lib/gcc/nios2-elf/4.9.1/../../../../../H-x86_64-mingw32/nios2-elf/lib\libc.a(lib_a-mprec.o)
 .debug_ranges  0x0000000000000bc0      0x140 c:/altera/15.0/nios2eds/bin/gnu/h-x86_64-mingw32/bin/../lib/gcc/nios2-elf/4.9.1/../../../../../H-x86_64-mingw32/nios2-elf/lib\libc.a(lib_a-reallocr.o)
 .debug_ranges  0x0000000000000d00      0x1c0 c:/altera/15.0/nios2eds/bin/gnu/h-x86_64-mingw32/bin/../lib/gcc/nios2-elf/4.9.1/../../../../../H-x86_64-mingw32/nios2-elf/lib\libc.a(lib_a-vfiprintf.o)
 .debug_ranges  0x0000000000000ec0       0x48 c:/altera/15.0/nios2eds/bin/gnu/h-x86_64-mingw32/bin/../lib/gcc/nios2-elf/4.9.1/../../../../../H-x86_64-mingw32/nios2-elf/lib\libc.a(lib_a-callocr.o)
 .debug_ranges  0x0000000000000f08       0x18 c:/altera/15.0/nios2eds/bin/gnu/h-x86_64-mingw32/bin/../lib/gcc/nios2-elf/4.9.1/../../../../../H-x86_64-mingw32/nios2-elf/lib\libc.a(lib_a-fclose.o)
 .debug_ranges  0x0000000000000f20       0x18 c:/altera/15.0/nios2eds/bin/gnu/h-x86_64-mingw32/bin/../lib/gcc/nios2-elf/4.9.1/../../../../../H-x86_64-mingw32/nios2-elf/lib\libc.a(lib_a-fputwc.o)
 .debug_ranges  0x0000000000000f38      0x170 c:/altera/15.0/nios2eds/bin/gnu/h-x86_64-mingw32/bin/../lib/gcc/nios2-elf/4.9.1\libgcc.a(_udivdi3.o)
 .debug_ranges  0x00000000000010a8      0x150 c:/altera/15.0/nios2eds/bin/gnu/h-x86_64-mingw32/bin/../lib/gcc/nios2-elf/4.9.1\libgcc.a(_umoddi3.o)
 .debug_ranges  0x00000000000011f8       0x48 c:/altera/15.0/nios2eds/bin/gnu/h-x86_64-mingw32/bin/../lib/gcc/nios2-elf/4.9.1\libgcc.a(eqdf2.o)
 .debug_ranges  0x0000000000001240       0x90 c:/altera/15.0/nios2eds/bin/gnu/h-x86_64-mingw32/bin/../lib/gcc/nios2-elf/4.9.1\libgcc.a(gedf2.o)
 .debug_ranges  0x00000000000012d0       0x18 c:/altera/15.0/nios2eds/bin/gnu/h-x86_64-mingw32/bin/../lib/gcc/nios2-elf/4.9.1\libgcc.a(floatunsidf.o)
 .debug_ranges  0x00000000000012e8       0x28 ../LT24_final_sw_bsp/\libucosii_bsp.a(alt_irq_entry.o)
 .debug_ranges  0x0000000000001310       0x10 ../LT24_final_sw_bsp/\libucosii_bsp.a(alt_irq_handler.o)
 .debug_ranges  0x0000000000001320       0x30 ../LT24_final_sw_bsp/\libucosii_bsp.a(alt_exception_entry.o)
 .debug_ranges  0x0000000000001350       0x18 c:/altera/15.0/nios2eds/bin/gnu/h-x86_64-mingw32/bin/../lib/gcc/nios2-elf/4.9.1/../../../../../H-x86_64-mingw32/nios2-elf/lib\libc.a(lib_a-__call_atexit.o)
